   1              		.cpu arm7tdmi
   2              		.fpu softvfp
   3              		.eabi_attribute 20, 1
   4              		.eabi_attribute 21, 1
   5              		.eabi_attribute 23, 3
   6              		.eabi_attribute 24, 1
   7              		.eabi_attribute 25, 1
   8              		.eabi_attribute 26, 1
   9              		.eabi_attribute 30, 6
  10              		.eabi_attribute 18, 4
  11              		.file	"proyecto.c"
  21              	.Ltext0:
  22              		.file 1 "../proyecto.c"
 2136              		.align	2
 2139              	syllablesWavFile:
 2140 0000 0000200C 		.word	203423744
 2141 0004 0080200C 		.word	203456512
 2142 0008 0000210C 		.word	203489280
 2143 000c 0080210C 		.word	203522048
 2144 0010 0000220C 		.word	203554816
 2145 0014 0080220C 		.word	203587584
 2146 0018 0000230C 		.word	203620352
 2147 001c 0080230C 		.word	203653120
 2148 0020 0000240C 		.word	203685888
 2149 0024 0080240C 		.word	203718656
 2150 0028 0000250C 		.word	203751424
 2151 002c 0080250C 		.word	203784192
 2152 0030 0000260C 		.word	203816960
 2153 0034 0080260C 		.word	203849728
 2154 0038 0000270C 		.word	203882496
 2155 003c 0080270C 		.word	203915264
 2156 0040 0000280C 		.word	203948032
 2157 0044 0080280C 		.word	203980800
 2158 0048 0000290C 		.word	204013568
 2159 004c 0080290C 		.word	204046336
 2160 0050 00002A0C 		.word	204079104
 2161 0054 00802A0C 		.word	204111872
 2162 0058 00002B0C 		.word	204144640
 2163 005c 00802B0C 		.word	204177408
 2164 0060 00002C0C 		.word	204210176
 2165 0064 00802C0C 		.word	204242944
 2166 0068 00002D0C 		.word	204275712
 2167 006c 00802D0C 		.word	204308480
 2168 0070 00002E0C 		.word	204341248
 2169 0074 00802E0C 		.word	204374016
 2170 0078 00002F0C 		.word	204406784
 2171 007c 00802F0C 		.word	204439552
 2172 0080 0000300C 		.word	204472320
 2173 0084 0080300C 		.word	204505088
 2174 0088 0000310C 		.word	204537856
 2175 008c 0080310C 		.word	204570624
 2176 0090 0000320C 		.word	204603392
 2177 0094 0080320C 		.word	204636160
 2178 0098 0000330C 		.word	204668928
 2179 009c 0080330C 		.word	204701696
 2180 00a0 0000340C 		.word	204734464
 2181 00a4 0080340C 		.word	204767232
 2182 00a8 0000350C 		.word	204800000
 2183 00ac 0080350C 		.word	204832768
 2184 00b0 0000360C 		.word	204865536
 2185 00b4 0080360C 		.word	204898304
 2186 00b8 0000370C 		.word	204931072
 2187 00bc 0080370C 		.word	204963840
 2188 00c0 0000380C 		.word	204996608
 2189 00c4 0080380C 		.word	205029376
 2190 00c8 0000390C 		.word	205062144
 2191 00cc 0080390C 		.word	205094912
 2192 00d0 00003A0C 		.word	205127680
 2193 00d4 00803A0C 		.word	205160448
 2194 00d8 00003B0C 		.word	205193216
 2195 00dc 00803B0C 		.word	205225984
 2196 00e0 00003C0C 		.word	205258752
 2197 00e4 00803C0C 		.word	205291520
 2198 00e8 00003D0C 		.word	205324288
 2199 00ec 00803D0C 		.word	205357056
 2200 00f0 00003E0C 		.word	205389824
 2201 00f4 00803E0C 		.word	205422592
 2202 00f8 00003F0C 		.word	205455360
 2203 00fc 00803F0C 		.word	205488128
 2204 0100 0000400C 		.word	205520896
 2205 0104 0080400C 		.word	205553664
 2206 0108 0000410C 		.word	205586432
 2207 010c 0080410C 		.word	205619200
 2208 0110 0000420C 		.word	205651968
 2209 0114 0080420C 		.word	205684736
 2210 0118 0000430C 		.word	205717504
 2211 011c 0080430C 		.word	205750272
 2212 0120 0000440C 		.word	205783040
 2213 0124 0080440C 		.word	205815808
 2214 0128 0000450C 		.word	205848576
 2215 012c 0080450C 		.word	205881344
 2216 0130 0000460C 		.word	205914112
 2217 0134 0080460C 		.word	205946880
 2218 0138 0000470C 		.word	205979648
 2219 013c 0080470C 		.word	206012416
 2220 0140 0000480C 		.word	206045184
 2221 0144 0080480C 		.word	206077952
 2222 0148 0000490C 		.word	206110720
 2223 014c 0080490C 		.word	206143488
 2224 0150 00004A0C 		.word	206176256
 2225 0154 00804A0C 		.word	206209024
 2226 0158 00004B0C 		.word	206241792
 2227 015c 00804B0C 		.word	206274560
 2228 0160 00004C0C 		.word	206307328
 2229 0164 00804C0C 		.word	206340096
 2230 0168 00004D0C 		.word	206372864
 2231 016c 00804D0C 		.word	206405632
 2232 0170 00004E0C 		.word	206438400
 2233 0174 00804E0C 		.word	206471168
 2234 0178 00004F0C 		.word	206503936
 2235 017c 00804F0C 		.word	206536704
 2236 0180 0000500C 		.word	206569472
 2237 0184 0080500C 		.word	206602240
 2238 0188 0000510C 		.word	206635008
 2239 018c 0080510C 		.word	206667776
 2240 0190 0000520C 		.word	206700544
 2241 0194 0080520C 		.word	206733312
 2242 0198 0000530C 		.word	206766080
 2243 019c 0080530C 		.word	206798848
 2244 01a0 0000540C 		.word	206831616
 2245 01a4 0080540C 		.word	206864384
 2246 01a8 0000550C 		.word	206897152
 2247 01ac 0080550C 		.word	206929920
 2248 01b0 0000560C 		.word	206962688
 2249 01b4 0080560C 		.word	206995456
 2250 01b8 0000570C 		.word	207028224
 2251 01bc 0080570C 		.word	207060992
 2252 01c0 0000580C 		.word	207093760
 2253 01c4 0080580C 		.word	207126528
 2254 01c8 0000590C 		.word	207159296
 2255 01cc 0080590C 		.word	207192064
 2256 01d0 00005A0C 		.word	207224832
 2257 01d4 00805A0C 		.word	207257600
 2258 01d8 00005B0C 		.word	207290368
 2259 01dc 00805B0C 		.word	207323136
 2260 01e0 00005C0C 		.word	207355904
 2261 01e4 00805C0C 		.word	207388672
 2262 01e8 00005D0C 		.word	207421440
 2263 01ec 00805D0C 		.word	207454208
 2264 01f0 00005E0C 		.word	207486976
 2265 01f4 00805E0C 		.word	207519744
 2266 01f8 00005F0C 		.word	207552512
 2267 01fc 00805F0C 		.word	207585280
 2268 0200 0000600C 		.word	207618048
 2269 0204 0080600C 		.word	207650816
 2270 0208 0000610C 		.word	207683584
 2271 020c 0080610C 		.word	207716352
 2272 0210 0000620C 		.word	207749120
 2273 0214 0080620C 		.word	207781888
 2274 0218 0000630C 		.word	207814656
 2275 021c 0080630C 		.word	207847424
 2276 0220 0000640C 		.word	207880192
 2277 0224 0080640C 		.word	207912960
 2278 0228 0000650C 		.word	207945728
 2279 022c 0080650C 		.word	207978496
 2280 0230 0000660C 		.word	208011264
 2281 0234 0080660C 		.word	208044032
 2282 0238 0000670C 		.word	208076800
 2283 023c 0080670C 		.word	208109568
 2284 0240 0000680C 		.word	208142336
 2285 0244 0080680C 		.word	208175104
 2286 0248 0000690C 		.word	208207872
 2287 024c 0080690C 		.word	208240640
 2288 0250 00006A0C 		.word	208273408
 2289 0254 00806A0C 		.word	208306176
 2290 0258 00006B0C 		.word	208338944
 2291 025c 00806B0C 		.word	208371712
 2292 0260 00006C0C 		.word	208404480
 2293 0264 00806C0C 		.word	208437248
 2294 0268 00006D0C 		.word	208470016
 2295 026c 00806D0C 		.word	208502784
 2296 0270 00006E0C 		.word	208535552
 2297 0274 00806E0C 		.word	208568320
 2298 0278 00006F0C 		.word	208601088
 2299 027c 00806F0C 		.word	208633856
 2300 0280 0000700C 		.word	208666624
 2301 0284 0080700C 		.word	208699392
 2302 0288 0000710C 		.word	208732160
 2303 028c 0080710C 		.word	208764928
 2304 0290 0000720C 		.word	208797696
 2305 0294 0080720C 		.word	208830464
 2306 0298 0000730C 		.word	208863232
 2307 029c 0080730C 		.word	208896000
 2308 02a0 0000740C 		.word	208928768
 2309 02a4 0080740C 		.word	208961536
 2310 02a8 0000750C 		.word	208994304
 2311 02ac 0080750C 		.word	209027072
 2312 02b0 0000760C 		.word	209059840
 2313 02b4 0080760C 		.word	209092608
 2314 02b8 0000770C 		.word	209125376
 2315 02bc 0080770C 		.word	209158144
 2316 02c0 0000780C 		.word	209190912
 2317 02c4 0080780C 		.word	209223680
 2318 02c8 0000790C 		.word	209256448
 2319 02cc 0080790C 		.word	209289216
 2320 02d0 00007A0C 		.word	209321984
 2321 02d4 00807A0C 		.word	209354752
 2322              		.global	close
 2323              		.bss
 2326              	close:
 2327 0000 00       		.space	1
 2328              		.global	back
 2331              	back:
 2332 0001 00       		.space	1
 2333              		.comm	extraOption,1,1
 2334              		.section	.rodata
 2335              		.align	2
 2336              	.LC0:
 2337 0000 0A0A4269 		.ascii	"\012\012Bienvenido a Aprende\012\012\000"
 2337      656E7665 
 2337      6E69646F 
 2337      20612041 
 2337      7072656E 
 2338 0019 000000   		.align	2
 2339              	.LC1:
 2340 001c 0A0A506F 		.ascii	"\012\012Por Alejandro Sacanell\012\012\000"
 2340      7220416C 
 2340      656A616E 
 2340      64726F20 
 2340      53616361 
 2341 0037 00       		.align	2
 2342              	.LC2:
 2343 0038 41505245 		.ascii	"APRENDE\000"
 2343      4E444500 
 2344              		.align	2
 2345              	.LC3:
 2346 0040 41707265 		.ascii	"Aprende por Alejandro Sacanell\000"
 2346      6E646520 
 2346      706F7220 
 2346      416C656A 
 2346      616E6472 
 2347 005f 00       		.align	2
 2348              	.LC4:
 2349 0060 20202D20 		.ascii	"  - Hasta luego!\012\000"
 2349      48617374 
 2349      61206C75 
 2349      65676F21 
 2349      0A00
 2350 0072 0000     		.align	2
 2351              	.LC5:
 2352 0074 48617374 		.ascii	"Hasta luego!\000"
 2352      61206C75 
 2352      65676F21 
 2352      00
 2353              		.text
 2354              		.align	2
 2355              		.global	main
 2357              	main:
 2358              	.LFB0:
   1:../proyecto.c **** #include <common_types.h>
   2:../proyecto.c **** #include <system.h>
   3:../proyecto.c **** #include <uart.h>
   4:../proyecto.c **** #include <keypad.h>
   5:../proyecto.c **** #include <lcd.h>
   6:../proyecto.c **** #include <uda1341ts.h>
   7:../proyecto.c **** #include <iis.h>
   8:../proyecto.c **** #include <leds.h>
   9:../proyecto.c **** #include <pbs.h>
  10:../proyecto.c **** #include <rtc.h>
  11:../proyecto.c **** #include <s3c44b0x.h>
  12:../proyecto.c **** #include <s3cev40.h>
  13:../proyecto.c **** 
  14:../proyecto.c **** #define TXT_MAXLEN (2000)
  15:../proyecto.c **** 
  16:../proyecto.c **** #define REC_BUFFER      ((int16 *)0x0c700000)
  17:../proyecto.c **** #define REC_SIZE        (192000)
  18:../proyecto.c **** 
  19:../proyecto.c **** 
  20:../proyecto.c **** void isr_tick( void ) __attribute__ ((interrupt ("IRQ")));
  21:../proyecto.c **** // KP (4)
  22:../proyecto.c **** 
  23:../proyecto.c **** #define ABOUT 	(uint8 *) 0x0c7c0000
  24:../proyecto.c **** #define L2D1   (uint8 *) 0xc7c9700
  25:../proyecto.c **** #define  L2D2 (uint8 *) 0xc7d2E00
  26:../proyecto.c **** #define  L3D1 (uint8 *) 0xc7dc500
  27:../proyecto.c **** #define  L3D2   (uint8 *) 0xc7e5c00
  28:../proyecto.c **** 
  29:../proyecto.c **** 
  30:../proyecto.c **** // Identificadores de sonidos
  31:../proyecto.c **** typedef enum
  32:../proyecto.c **** {
  33:../proyecto.c **** 	// vocales (5)
  34:../proyecto.c **** 	a, e, i, o, u,
  35:../proyecto.c **** 	// consonantes (19)
  36:../proyecto.c **** 	b, d, f, g, j, k, l, m, n, N, p, r, R, s, t, x, y, z, H,
  37:../proyecto.c **** 	// consontante + vocal (95)
  38:../proyecto.c **** 	ba, be, bi, bo, bu, da, de, di, Do, du, fa, fe, fi, fo, fu,
  39:../proyecto.c **** 	ga, ge, gi, go, gu, ja, je, ji, jo, ju,	ka, ke, ki, ko, ku,
  40:../proyecto.c **** 	la, le, li, lo, lu, ma, me, mi, mo, mu, na, ne, ni, no, nu,
  41:../proyecto.c **** 	Na, Ne, Ni, No, Nu, pa, pe, pi, po, pu, ra, re, ri, ro, ru,
  42:../proyecto.c **** 	Ra, Re, Ri, Ro, Ru, sa, se, si, so, su, ta, te, ti, to, tu,
  43:../proyecto.c **** 	xa, xe, xi, xo, xu, ya, ye, yi, yo, yu,	za, ze, zi, zo, zu,
  44:../proyecto.c **** 	Ha, He, Hi, Ho, Hu,
  45:../proyecto.c **** 	// trabadas (60)
  46:../proyecto.c **** 	bla, ble, bli, blo, blu, bra, bre, bri, bro, bru,
  47:../proyecto.c **** 	fla, fle, fli, flo, flu, fra, fre, fri, fro, fru,
  48:../proyecto.c **** 	gla, gle, gli, glo, glu, gra, gre, gri, gro, gru,
  49:../proyecto.c **** 	kla, kle, kli, klo, klu, kra, kre, kri, kro, kru,
  50:../proyecto.c **** 	pla, ple, pli, plo, plu, pra, pre, pri, pro, pru,
  51:../proyecto.c **** 	tra, tre, tri, tro, tru,
  52:../proyecto.c **** 	dra, dre, dri, dro, dru,
  53:../proyecto.c **** 	// mudos (3)
  54:../proyecto.c **** 	espacio, coma, punto
  55:../proyecto.c **** } syllableId_t;
  56:../proyecto.c **** 
  57:../proyecto.c **** // Array de punteros a WAV de sonidos
  58:../proyecto.c **** const uint8 *syllablesWavFile[punto-a+1] = {
  59:../proyecto.c **** 	// vocales (5)
  60:../proyecto.c **** 	(uint8 *) 0x0c200000, // a
  61:../proyecto.c **** 	(uint8 *) 0x0c208000, // e
  62:../proyecto.c **** 	(uint8 *) 0x0c210000, // i
  63:../proyecto.c **** 	(uint8 *) 0x0c218000, // o
  64:../proyecto.c **** 	(uint8 *) 0x0c220000, // u
  65:../proyecto.c **** 	// consonantes (19)
  66:../proyecto.c **** 	(uint8 *) 0x0c228000, // b
  67:../proyecto.c **** 	(uint8 *) 0x0c230000, // d
  68:../proyecto.c **** 	(uint8 *) 0x0c238000, // f
  69:../proyecto.c **** 	(uint8 *) 0x0c240000, // g
  70:../proyecto.c **** 	(uint8 *) 0x0c248000, // j
  71:../proyecto.c **** 	(uint8 *) 0x0c250000, // k
  72:../proyecto.c **** 	(uint8 *) 0x0c258000, // l
  73:../proyecto.c **** 	(uint8 *) 0x0c260000, // m
  74:../proyecto.c **** 	(uint8 *) 0x0c268000, // n
  75:../proyecto.c **** 	(uint8 *) 0x0c270000, // N (sonido ñ)
  76:../proyecto.c **** 	(uint8 *) 0x0c278000, // p
  77:../proyecto.c **** 	(uint8 *) 0x0c280000, // r
  78:../proyecto.c **** 	(uint8 *) 0x0c288000, // R (sonido rr)
  79:../proyecto.c **** 	(uint8 *) 0x0c290000, // s
  80:../proyecto.c **** 	(uint8 *) 0x0c298000, // t
  81:../proyecto.c **** 	(uint8 *) 0x0c2a0000, // x
  82:../proyecto.c **** 	(uint8 *) 0x0c2a8000, // y
  83:../proyecto.c **** 	(uint8 *) 0x0c2b0000, // z
  84:../proyecto.c **** 	(uint8 *) 0x0c2b8000, // H (sonido ch)
  85:../proyecto.c **** 	// consontante + vocal (95)
  86:../proyecto.c **** 	(uint8 *) 0x0c2c0000, // ba (ba y va)
  87:../proyecto.c **** 	(uint8 *) 0x0c2c8000, // be (be y ve)
  88:../proyecto.c **** 	(uint8 *) 0x0c2d0000, // bi (bi y vi)
  89:../proyecto.c **** 	(uint8 *) 0x0c2d8000, // bo (bo y vo)
  90:../proyecto.c **** 	(uint8 *) 0x0c2e0000, // bu (bu y vu)
  91:../proyecto.c **** 	(uint8 *) 0x0c2e8000, // da
  92:../proyecto.c **** 	(uint8 *) 0x0c2f0000, // de
  93:../proyecto.c **** 	(uint8 *) 0x0c2f8000, // di
  94:../proyecto.c **** 	(uint8 *) 0x0c300000, // Do (do es palabra reservada en C)
  95:../proyecto.c **** 	(uint8 *) 0x0c308000, // du
  96:../proyecto.c **** 	(uint8 *) 0x0c310000, // fa
  97:../proyecto.c **** 	(uint8 *) 0x0c318000, // fe
  98:../proyecto.c **** 	(uint8 *) 0x0c320000, // fi
  99:../proyecto.c **** 	(uint8 *) 0x0c328000, // fo
 100:../proyecto.c **** 	(uint8 *) 0x0c330000, // fu
 101:../proyecto.c **** 	(uint8 *) 0x0c338000, // ga
 102:../proyecto.c **** 	(uint8 *) 0x0c340000, // ge (sonido gue)
 103:../proyecto.c **** 	(uint8 *) 0x0c348000, // gi (sonido gui)
 104:../proyecto.c **** 	(uint8 *) 0x0c350000, // go
 105:../proyecto.c **** 	(uint8 *) 0x0c358000, // gu (sonido gu y gü)
 106:../proyecto.c **** 	(uint8 *) 0x0c360000, // ja
 107:../proyecto.c **** 	(uint8 *) 0x0c368000, // je (je y ge)
 108:../proyecto.c **** 	(uint8 *) 0x0c370000, // ji (ji y gi)
 109:../proyecto.c **** 	(uint8 *) 0x0c378000, // jo
 110:../proyecto.c **** 	(uint8 *) 0x0c380000, // ju
 111:../proyecto.c **** 	(uint8 *) 0x0c388000, // ka (ka y ca)
 112:../proyecto.c **** 	(uint8 *) 0x0c390000, // ke (ke y que)
 113:../proyecto.c **** 	(uint8 *) 0x0c398000, // ki (ki y qui)
 114:../proyecto.c **** 	(uint8 *) 0x0c3a0000, // ko (ko y co)
 115:../proyecto.c **** 	(uint8 *) 0x0c3a8000, // ku (ku y cu)
 116:../proyecto.c **** 	(uint8 *) 0x0c3b0000, // la
 117:../proyecto.c **** 	(uint8 *) 0x0c3b8000, // le
 118:../proyecto.c **** 	(uint8 *) 0x0c3c0000, // li
 119:../proyecto.c **** 	(uint8 *) 0x0c3c8000, // lo
 120:../proyecto.c **** 	(uint8 *) 0x0c3d0000, // lu
 121:../proyecto.c **** 	(uint8 *) 0x0c3d8000, // ma
 122:../proyecto.c **** 	(uint8 *) 0x0c3e0000, // me
 123:../proyecto.c **** 	(uint8 *) 0x0c3e8000, // mi
 124:../proyecto.c **** 	(uint8 *) 0x0c3f0000, // mo
 125:../proyecto.c **** 	(uint8 *) 0x0c3f8000, // mu
 126:../proyecto.c **** 	(uint8 *) 0x0c400000, // na
 127:../proyecto.c **** 	(uint8 *) 0x0c408000, // ne
 128:../proyecto.c **** 	(uint8 *) 0x0c410000, // ni
 129:../proyecto.c **** 	(uint8 *) 0x0c418000, // no
 130:../proyecto.c **** 	(uint8 *) 0x0c420000, // nu
 131:../proyecto.c **** 	(uint8 *) 0x0c428000, // Na (sonido ña)
 132:../proyecto.c **** 	(uint8 *) 0x0c430000, // Ne (sonido ñe)
 133:../proyecto.c **** 	(uint8 *) 0x0c438000, // Ni (sonido ñi)
 134:../proyecto.c **** 	(uint8 *) 0x0c440000, // No (sonido ño)
 135:../proyecto.c **** 	(uint8 *) 0x0c448000, // Nu (sonido ñu)
 136:../proyecto.c **** 	(uint8 *) 0x0c450000, // pa
 137:../proyecto.c **** 	(uint8 *) 0x0c458000, // pe
 138:../proyecto.c **** 	(uint8 *) 0x0c460000, // pi
 139:../proyecto.c **** 	(uint8 *) 0x0c468000, // po
 140:../proyecto.c **** 	(uint8 *) 0x0c470000, // pu
 141:../proyecto.c **** 	(uint8 *) 0x0c478000, // ra
 142:../proyecto.c **** 	(uint8 *) 0x0c480000, // re
 143:../proyecto.c **** 	(uint8 *) 0x0c488000, // ri
 144:../proyecto.c **** 	(uint8 *) 0x0c490000, // ro
 145:../proyecto.c **** 	(uint8 *) 0x0c498000, // ru
 146:../proyecto.c **** 	(uint8 *) 0x0c4a0000, // Ra (sonido rra)
 147:../proyecto.c **** 	(uint8 *) 0x0c4a8000, // Re (sonido rre)
 148:../proyecto.c **** 	(uint8 *) 0x0c4b0000, // Ri (sonido rri)
 149:../proyecto.c **** 	(uint8 *) 0x0c4b8000, // Ro (sonido rro)
 150:../proyecto.c **** 	(uint8 *) 0x0c4c0000, // Ru (sonido rru)
 151:../proyecto.c **** 	(uint8 *) 0x0c4c8000, // sa
 152:../proyecto.c **** 	(uint8 *) 0x0c4d0000, // se
 153:../proyecto.c **** 	(uint8 *) 0x0c4d8000, // si
 154:../proyecto.c **** 	(uint8 *) 0x0c4e0000, // so
 155:../proyecto.c **** 	(uint8 *) 0x0c4e8000, // su
 156:../proyecto.c **** 	(uint8 *) 0x0c4f0000, // ta
 157:../proyecto.c **** 	(uint8 *) 0x0c4f8000, // te
 158:../proyecto.c **** 	(uint8 *) 0x0c500000, // ti
 159:../proyecto.c **** 	(uint8 *) 0x0c508000, // to
 160:../proyecto.c **** 	(uint8 *) 0x0c510000, // tu
 161:../proyecto.c **** 	(uint8 *) 0x0c518000, // xa
 162:../proyecto.c **** 	(uint8 *) 0x0c520000, // xe
 163:../proyecto.c **** 	(uint8 *) 0x0c528000, // xi
 164:../proyecto.c **** 	(uint8 *) 0x0c530000, // xo
 165:../proyecto.c **** 	(uint8 *) 0x0c538000, // xu
 166:../proyecto.c **** 	(uint8 *) 0x0c540000, // ya (ya y lla)
 167:../proyecto.c **** 	(uint8 *) 0x0c548000, // ye (ye y lle)
 168:../proyecto.c **** 	(uint8 *) 0x0c550000, // yi (yi y lli)
 169:../proyecto.c **** 	(uint8 *) 0x0c558000, // yo (yo y llo)
 170:../proyecto.c **** 	(uint8 *) 0x0c560000, // yu (yu y llu)
 171:../proyecto.c **** 	(uint8 *) 0x0c568000, // za
 172:../proyecto.c **** 	(uint8 *) 0x0c570000, // ze (ze y ce)
 173:../proyecto.c **** 	(uint8 *) 0x0c578000, // zi (zi y ci)
 174:../proyecto.c **** 	(uint8 *) 0x0c580000, // zo
 175:../proyecto.c **** 	(uint8 *) 0x0c588000, // zu
 176:../proyecto.c **** 	(uint8 *) 0x0c590000, // Ha (sonido cha)
 177:../proyecto.c **** 	(uint8 *) 0x0c598000, // He (sonido che)
 178:../proyecto.c **** 	(uint8 *) 0x0c5a0000, // Hi (sonido chi)
 179:../proyecto.c **** 	(uint8 *) 0x0c5a8000, // Ho (sonido cho)
 180:../proyecto.c **** 	(uint8 *) 0x0c5b0000, // Hu (sonido chu)
 181:../proyecto.c **** 	// trabadas (60)
 182:../proyecto.c **** 	(uint8 *) 0x0c5b8000, // bla
 183:../proyecto.c **** 	(uint8 *) 0x0c5c0000, // ble
 184:../proyecto.c **** 	(uint8 *) 0x0c5c8000, // bli
 185:../proyecto.c **** 	(uint8 *) 0x0c5d0000, // blo
 186:../proyecto.c **** 	(uint8 *) 0x0c5d8000, // blu
 187:../proyecto.c **** 	(uint8 *) 0x0c5e0000, // bra
 188:../proyecto.c **** 	(uint8 *) 0x0c5e8000, // bre
 189:../proyecto.c **** 	(uint8 *) 0x0c5f0000, // bri
 190:../proyecto.c **** 	(uint8 *) 0x0c5f8000, // bro
 191:../proyecto.c **** 	(uint8 *) 0x0c600000, // bru
 192:../proyecto.c **** 	(uint8 *) 0x0c608000, // fla
 193:../proyecto.c **** 	(uint8 *) 0x0c610000, // fle
 194:../proyecto.c **** 	(uint8 *) 0x0c618000, // fli
 195:../proyecto.c **** 	(uint8 *) 0x0c620000, // flo
 196:../proyecto.c **** 	(uint8 *) 0x0c628000, // flu
 197:../proyecto.c **** 	(uint8 *) 0x0c630000, // fra
 198:../proyecto.c **** 	(uint8 *) 0x0c638000, // fre
 199:../proyecto.c **** 	(uint8 *) 0x0c640000, // fri
 200:../proyecto.c **** 	(uint8 *) 0x0c648000, // fro
 201:../proyecto.c **** 	(uint8 *) 0x0c650000, // fru
 202:../proyecto.c **** 	(uint8 *) 0x0c658000, // gla
 203:../proyecto.c **** 	(uint8 *) 0x0c660000, // gle
 204:../proyecto.c **** 	(uint8 *) 0x0c668000, // gli
 205:../proyecto.c **** 	(uint8 *) 0x0c670000, // glo
 206:../proyecto.c **** 	(uint8 *) 0x0c678000, // glu
 207:../proyecto.c **** 	(uint8 *) 0x0c680000, // gra
 208:../proyecto.c **** 	(uint8 *) 0x0c688000, // gre
 209:../proyecto.c **** 	(uint8 *) 0x0c690000, // gri
 210:../proyecto.c **** 	(uint8 *) 0x0c698000, // gro
 211:../proyecto.c **** 	(uint8 *) 0x0c6a0000, // gru
 212:../proyecto.c **** 	(uint8 *) 0x0c6a8000, // kla (sonido cla)
 213:../proyecto.c **** 	(uint8 *) 0x0c6b0000, // kle (sonido cle)
 214:../proyecto.c **** 	(uint8 *) 0x0c6b8000, // kli (sonido cli)
 215:../proyecto.c **** 	(uint8 *) 0x0c6c0000, // klo (sonido clo)
 216:../proyecto.c **** 	(uint8 *) 0x0c6c8000, // klu (sonido clu)
 217:../proyecto.c **** 	(uint8 *) 0x0c6d0000, // kra (sonido cra)
 218:../proyecto.c **** 	(uint8 *) 0x0c6d8000, // kre (sonido cre)
 219:../proyecto.c **** 	(uint8 *) 0x0c6e0000, // kri (sonido cri)
 220:../proyecto.c **** 	(uint8 *) 0x0c6e8000, // kro (sonido cro)
 221:../proyecto.c **** 	(uint8 *) 0x0c6f0000, // kru (sonido kru)
 222:../proyecto.c **** 	(uint8 *) 0x0c6f8000, // pla
 223:../proyecto.c **** 	(uint8 *) 0x0c700000, // ple
 224:../proyecto.c **** 	(uint8 *) 0x0c708000, // pli
 225:../proyecto.c **** 	(uint8 *) 0x0c710000, // plo
 226:../proyecto.c **** 	(uint8 *) 0x0c718000, // plu
 227:../proyecto.c **** 	(uint8 *) 0x0c720000, // pra
 228:../proyecto.c **** 	(uint8 *) 0x0c728000, // pre
 229:../proyecto.c **** 	(uint8 *) 0x0c730000, // pri
 230:../proyecto.c **** 	(uint8 *) 0x0c738000, // pro
 231:../proyecto.c **** 	(uint8 *) 0x0c740000, // pru
 232:../proyecto.c **** 	(uint8 *) 0x0c748000, // tra
 233:../proyecto.c **** 	(uint8 *) 0x0c750000, // tre
 234:../proyecto.c **** 	(uint8 *) 0x0c758000, // tri
 235:../proyecto.c **** 	(uint8 *) 0x0c760000, // tro
 236:../proyecto.c **** 	(uint8 *) 0x0c768000, // tru
 237:../proyecto.c **** 	(uint8 *) 0x0c770000, // dra
 238:../proyecto.c **** 	(uint8 *) 0x0c778000, // dre
 239:../proyecto.c **** 	(uint8 *) 0x0c780000, // dri
 240:../proyecto.c **** 	(uint8 *) 0x0c788000, // dro
 241:../proyecto.c **** 	(uint8 *) 0x0c790000, // dru
 242:../proyecto.c **** 	// mudos (3)
 243:../proyecto.c **** 	(uint8 *) 0x0c798000, // espacio
 244:../proyecto.c **** 	(uint8 *) 0x0c7a0000, // coma
 245:../proyecto.c **** 	(uint8 *) 0x0c7a8000  // punto
 246:../proyecto.c **** 
 247:../proyecto.c **** };
 248:../proyecto.c **** 
 249:../proyecto.c **** 
 250:../proyecto.c **** /*******************************************************************/
 251:../proyecto.c **** 
 252:../proyecto.c **** void iis_textToSpeech( char *txt );
 253:../proyecto.c **** 
 254:../proyecto.c **** static void faseMonolitera( char *txtIn, char *txtOut );
 255:../proyecto.c **** static void faseBilitera( char *txtIn, char *txtOut );
 256:../proyecto.c **** static char *getSyllableId( char *txt, syllableId_t *id );
 257:../proyecto.c **** 
 258:../proyecto.c **** static boolean esPuntuacion( char ch );
 259:../proyecto.c **** static boolean esVocal( char ch );
 260:../proyecto.c **** static boolean esConsonante( char ch );
 261:../proyecto.c **** static boolean esBFGKP( char ch );
 262:../proyecto.c **** static boolean esBDFGKPT( char ch );
 263:../proyecto.c **** 
 264:../proyecto.c **** void showMainMenu();
 265:../proyecto.c **** void handleMainOption(int8 mainOption);
 266:../proyecto.c **** void levelOne();
 267:../proyecto.c **** void levelTwo();
 268:../proyecto.c **** void extrasMenu();
 269:../proyecto.c **** void handleExtraMenuOption(uint8 extraOption);
 270:../proyecto.c **** void record();
 271:../proyecto.c **** void requestText();
 272:../proyecto.c **** void showAbout();
 273:../proyecto.c **** 
 274:../proyecto.c **** /*******************************************************************/
 275:../proyecto.c **** 
 276:../proyecto.c **** boolean close = FALSE;
 277:../proyecto.c **** boolean back = FALSE;
 278:../proyecto.c **** uint8 extraOption;
 279:../proyecto.c **** 
 280:../proyecto.c **** void main( void ){
 2359              		.loc 1 280 0
 2360              		.cfi_startproc
 2361              		@ Function supports interworking.
 2362              		@ args = 0, pretend = 0, frame = 8
 2363              		@ frame_needed = 1, uses_anonymous_args = 0
 2364 0000 0DC0A0E1 		mov	ip, sp
 2365              	.LCFI0:
 2366              		.cfi_def_cfa_register 12
 2367 0004 00D82DE9 		stmfd	sp!, {fp, ip, lr, pc}
 2368 0008 04B04CE2 		sub	fp, ip, #4
 2369              		.cfi_offset 14, -8
 2370              		.cfi_offset 13, -12
 2371              		.cfi_offset 11, -16
 2372              	.LCFI1:
 2373              		.cfi_def_cfa 11, 4
 2374 000c 08D04DE2 		sub	sp, sp, #8
 281:../proyecto.c **** 	int8 mainOption;
 282:../proyecto.c **** 
 283:../proyecto.c **** 	close = FALSE;
 2375              		.loc 1 283 0
 2376 0010 F4309FE5 		ldr	r3, .L3
 2377 0014 0020A0E3 		mov	r2, #0
 2378 0018 0020C3E5 		strb	r2, [r3, #0]
 284:../proyecto.c **** 	back = FALSE;
 2379              		.loc 1 284 0
 2380 001c EC309FE5 		ldr	r3, .L3+4
 2381 0020 0020A0E3 		mov	r2, #0
 2382 0024 0020C3E5 		strb	r2, [r3, #0]
 285:../proyecto.c **** 
 286:../proyecto.c **** 	sys_init();		/* Inicializa sistemas y periféricos */
 2383              		.loc 1 286 0
 2384 0028 FEFFFFEB 		bl	sys_init
 287:../proyecto.c **** 	leds_init();
 2385              		.loc 1 287 0
 2386 002c FEFFFFEB 		bl	leds_init
 288:../proyecto.c **** 	rtc_init();
 2387              		.loc 1 288 0
 2388 0030 FEFFFFEB 		bl	rtc_init
 289:../proyecto.c **** 	uart0_init();
 2389              		.loc 1 289 0
 2390 0034 FEFFFFEB 		bl	uart0_init
 290:../proyecto.c **** 	keypad_init();
 2391              		.loc 1 290 0
 2392 0038 FEFFFFEB 		bl	keypad_init
 291:../proyecto.c ****     segs_init();
 2393              		.loc 1 291 0
 2394 003c FEFFFFEB 		bl	segs_init
 292:../proyecto.c **** 	lcd_init();
 2395              		.loc 1 292 0
 2396 0040 FEFFFFEB 		bl	lcd_init
 293:../proyecto.c **** 	pbs_init();
 2397              		.loc 1 293 0
 2398 0044 FEFFFFEB 		bl	pbs_init
 294:../proyecto.c ****     uda1341ts_init();
 2399              		.loc 1 294 0
 2400 0048 FEFFFFEB 		bl	uda1341ts_init
 295:../proyecto.c ****     iis_init( IIS_DMA );
 2401              		.loc 1 295 0
 2402 004c 0100A0E3 		mov	r0, #1
 2403 0050 FEFFFFEB 		bl	iis_init
 296:../proyecto.c **** 
 297:../proyecto.c **** 	uart0_puts( "\n\nBienvenido a Aprende\n\n" );               /* Muestra mensaje por la UART0 (conec
 2404              		.loc 1 297 0
 2405 0054 B8009FE5 		ldr	r0, .L3+8
 2406 0058 FEFFFFEB 		bl	uart0_puts
 298:../proyecto.c **** 	uart0_puts( "\n\nPor Alejandro Sacanell\n\n" ); 
 2407              		.loc 1 298 0
 2408 005c B4009FE5 		ldr	r0, .L3+12
 2409 0060 FEFFFFEB 		bl	uart0_puts
 299:../proyecto.c **** 
 300:../proyecto.c ****     lcd_clear();
 2410              		.loc 1 300 0
 2411 0064 FEFFFFEB 		bl	lcd_clear
 301:../proyecto.c ****     lcd_on();
 2412              		.loc 1 301 0
 2413 0068 FEFFFFEB 		bl	lcd_on
 302:../proyecto.c **** 	lcd_puts_x2( 10, 16, BLACK, "APRENDE" );          /* Muestra mensaje por el LCD (regular contraste
 2414              		.loc 1 302 0
 2415 006c 0A00A0E3 		mov	r0, #10
 2416 0070 1010A0E3 		mov	r1, #16
 2417 0074 0F20A0E3 		mov	r2, #15
 2418 0078 9C309FE5 		ldr	r3, .L3+16
 2419 007c FEFFFFEB 		bl	lcd_puts_x2
 303:../proyecto.c **** 	uda1341ts_setvol( VOL_MED );
 2420              		.loc 1 303 0
 2421 0080 2000A0E3 		mov	r0, #32
 2422 0084 FEFFFFEB 		bl	uda1341ts_setvol
 304:../proyecto.c **** 	iis_textToSpeech( "Aprende por Alejandro Sacanell" );
 2423              		.loc 1 304 0
 2424 0088 90009FE5 		ldr	r0, .L3+20
 2425 008c FEFFFFEB 		bl	iis_textToSpeech
 305:../proyecto.c **** 	
 306:../proyecto.c **** 	timer3_delay_s(2);
 2426              		.loc 1 306 0
 2427 0090 0200A0E3 		mov	r0, #2
 2428 0094 FEFFFFEB 		bl	timer3_delay_s
 307:../proyecto.c **** 	
 308:../proyecto.c **** 	rtc_open( isr_tick, 127 );
 2429              		.loc 1 308 0
 2430 0098 84009FE5 		ldr	r0, .L3+24
 2431 009c 7F10A0E3 		mov	r1, #127
 2432 00a0 FEFFFFEB 		bl	rtc_open
 2433              	.L2:
 309:../proyecto.c **** 	do{
 310:../proyecto.c **** 		back = FALSE;
 2434              		.loc 1 310 0 discriminator 1
 2435 00a4 64309FE5 		ldr	r3, .L3+4
 2436 00a8 0020A0E3 		mov	r2, #0
 2437 00ac 0020C3E5 		strb	r2, [r3, #0]
 311:../proyecto.c **** 		lcd_clear();
 2438              		.loc 1 311 0 discriminator 1
 2439 00b0 FEFFFFEB 		bl	lcd_clear
 312:../proyecto.c **** 		showMainMenu();
 2440              		.loc 1 312 0 discriminator 1
 2441 00b4 FEFFFFEB 		bl	showMainMenu
 313:../proyecto.c **** 		mainOption = keypad_getchar();
 2442              		.loc 1 313 0 discriminator 1
 2443 00b8 FEFFFFEB 		bl	keypad_getchar
 2444 00bc 0030A0E1 		mov	r3, r0
 2445 00c0 0D304BE5 		strb	r3, [fp, #-13]
 314:../proyecto.c **** 		handleMainOption(mainOption);
 2446              		.loc 1 314 0 discriminator 1
 2447 00c4 DD305BE1 		ldrsb	r3, [fp, #-13]
 2448 00c8 0300A0E1 		mov	r0, r3
 2449 00cc FEFFFFEB 		bl	handleMainOption
 315:../proyecto.c **** 	}while(!close);
 2450              		.loc 1 315 0 discriminator 1
 2451 00d0 34309FE5 		ldr	r3, .L3
 2452 00d4 0030D3E5 		ldrb	r3, [r3, #0]	@ zero_extendqisi2
 2453 00d8 000053E3 		cmp	r3, #0
 2454 00dc F0FFFF0A 		beq	.L2
 316:../proyecto.c **** 	uart0_puts( "  - Hasta luego!\n" );
 2455              		.loc 1 316 0
 2456 00e0 40009FE5 		ldr	r0, .L3+28
 2457 00e4 FEFFFFEB 		bl	uart0_puts
 317:../proyecto.c **** 	lcd_clear();
 2458              		.loc 1 317 0
 2459 00e8 FEFFFFEB 		bl	lcd_clear
 318:../proyecto.c **** 	lcd_puts_x2( 50, 60, BLACK,"Hasta luego!" );
 2460              		.loc 1 318 0
 2461 00ec 3200A0E3 		mov	r0, #50
 2462 00f0 3C10A0E3 		mov	r1, #60
 2463 00f4 0F20A0E3 		mov	r2, #15
 2464 00f8 2C309FE5 		ldr	r3, .L3+32
 2465 00fc FEFFFFEB 		bl	lcd_puts_x2
 319:../proyecto.c **** 
 320:../proyecto.c **** }
 2466              		.loc 1 320 0
 2467 0100 0CD04BE2 		sub	sp, fp, #12
 2468 0104 00689DE8 		ldmfd	sp, {fp, sp, lr}
 2469 0108 1EFF2FE1 		bx	lr
 2470              	.L4:
 2471              		.align	2
 2472              	.L3:
 2473 010c 00000000 		.word	close
 2474 0110 00000000 		.word	back
 2475 0114 00000000 		.word	.LC0
 2476 0118 1C000000 		.word	.LC1
 2477 011c 38000000 		.word	.LC2
 2478 0120 40000000 		.word	.LC3
 2479 0124 00000000 		.word	isr_tick
 2480 0128 60000000 		.word	.LC4
 2481 012c 74000000 		.word	.LC5
 2482              		.cfi_endproc
 2483              	.LFE0:
 2485              		.section	.rodata
 2486 0081 000000   		.align	2
 2487              	.LC6:
 2488 0084 31203A20 		.ascii	"1 : Nivel 1\000"
 2488      4E697665 
 2488      6C203100 
 2489              		.align	2
 2490              	.LC7:
 2491 0090 20203120 		.ascii	"  1 - Nivel 1\012\000"
 2491      2D204E69 
 2491      76656C20 
 2491      310A00
 2492 009f 00       		.align	2
 2493              	.LC8:
 2494 00a0 32203A20 		.ascii	"2 : Nivel 2\000"
 2494      4E697665 
 2494      6C203200 
 2495              		.align	2
 2496              	.LC9:
 2497 00ac 20203220 		.ascii	"  2 - Nivel 2\012\000"
 2497      2D204E69 
 2497      76656C20 
 2497      320A00
 2498 00bb 00       		.align	2
 2499              	.LC10:
 2500 00bc 33203A20 		.ascii	"3 : Varios\000"
 2500      56617269 
 2500      6F7300
 2501 00c7 00       		.align	2
 2502              	.LC11:
 2503 00c8 20203320 		.ascii	"  3 - Varios\012\000"
 2503      2D205661 
 2503      72696F73 
 2503      0A00
 2504 00d6 0000     		.align	2
 2505              	.LC12:
 2506 00d8 34203A20 		.ascii	"4 : Sobre mi\000"
 2506      536F6272 
 2506      65206D69 
 2506      00
 2507 00e5 000000   		.align	2
 2508              	.LC13:
 2509 00e8 20203420 		.ascii	"  4 - Sobre mi\012\000"
 2509      2D20536F 
 2509      62726520 
 2509      6D690A00 
 2510              		.align	2
 2511              	.LC14:
 2512 00f8 35203A20 		.ascii	"5 : Salir\000"
 2512      53616C69 
 2512      7200
 2513 0102 0000     		.align	2
 2514              	.LC15:
 2515 0104 20203520 		.ascii	"  5 - Salir\012\000"
 2515      2D205361 
 2515      6C69720A 
 2515      00
 2516              		.text
 2517              		.align	2
 2518              		.global	showMainMenu
 2520              	showMainMenu:
 2521              	.LFB1:
 321:../proyecto.c **** 
 322:../proyecto.c **** void showMainMenu(){
 2522              		.loc 1 322 0
 2523              		.cfi_startproc
 2524              		@ Function supports interworking.
 2525              		@ args = 0, pretend = 0, frame = 0
 2526              		@ frame_needed = 1, uses_anonymous_args = 0
 2527 0130 0DC0A0E1 		mov	ip, sp
 2528              	.LCFI2:
 2529              		.cfi_def_cfa_register 12
 2530 0134 00D82DE9 		stmfd	sp!, {fp, ip, lr, pc}
 2531 0138 04B04CE2 		sub	fp, ip, #4
 2532              		.cfi_offset 14, -8
 2533              		.cfi_offset 13, -12
 2534              		.cfi_offset 11, -16
 2535              	.LCFI3:
 2536              		.cfi_def_cfa 11, 4
 2537 013c 08D04DE2 		sub	sp, sp, #8
 323:../proyecto.c **** 	lcd_draw_box( 10, 10, 310, 230, BLACK, 5 );
 2538              		.loc 1 323 0
 2539 0140 0F30A0E3 		mov	r3, #15
 2540 0144 00308DE5 		str	r3, [sp, #0]
 2541 0148 0530A0E3 		mov	r3, #5
 2542 014c 04308DE5 		str	r3, [sp, #4]
 2543 0150 0A00A0E3 		mov	r0, #10
 2544 0154 0A10A0E3 		mov	r1, #10
 2545 0158 9C209FE5 		ldr	r2, .L6
 2546 015c E630A0E3 		mov	r3, #230
 2547 0160 FEFFFFEB 		bl	lcd_draw_box
 324:../proyecto.c **** 	lcd_puts( 30, 32, BLACK,"1 : Nivel 1" );
 2548              		.loc 1 324 0
 2549 0164 1E00A0E3 		mov	r0, #30
 2550 0168 2010A0E3 		mov	r1, #32
 2551 016c 0F20A0E3 		mov	r2, #15
 2552 0170 88309FE5 		ldr	r3, .L6+4
 2553 0174 FEFFFFEB 		bl	lcd_puts
 325:../proyecto.c **** 	uart0_puts( "  1 - Nivel 1\n" );
 2554              		.loc 1 325 0
 2555 0178 84009FE5 		ldr	r0, .L6+8
 2556 017c FEFFFFEB 		bl	uart0_puts
 326:../proyecto.c **** 	lcd_puts( 30, 48, BLACK,"2 : Nivel 2" );
 2557              		.loc 1 326 0
 2558 0180 1E00A0E3 		mov	r0, #30
 2559 0184 3010A0E3 		mov	r1, #48
 2560 0188 0F20A0E3 		mov	r2, #15
 2561 018c 74309FE5 		ldr	r3, .L6+12
 2562 0190 FEFFFFEB 		bl	lcd_puts
 327:../proyecto.c **** 	uart0_puts( "  2 - Nivel 2\n" );
 2563              		.loc 1 327 0
 2564 0194 70009FE5 		ldr	r0, .L6+16
 2565 0198 FEFFFFEB 		bl	uart0_puts
 328:../proyecto.c **** 	lcd_puts( 30, 64, BLACK,"3 : Varios" );
 2566              		.loc 1 328 0
 2567 019c 1E00A0E3 		mov	r0, #30
 2568 01a0 4010A0E3 		mov	r1, #64
 2569 01a4 0F20A0E3 		mov	r2, #15
 2570 01a8 60309FE5 		ldr	r3, .L6+20
 2571 01ac FEFFFFEB 		bl	lcd_puts
 329:../proyecto.c **** 	uart0_puts( "  3 - Varios\n" );
 2572              		.loc 1 329 0
 2573 01b0 5C009FE5 		ldr	r0, .L6+24
 2574 01b4 FEFFFFEB 		bl	uart0_puts
 330:../proyecto.c **** 	lcd_puts( 30, 80, BLACK,"4 : Sobre mi" );
 2575              		.loc 1 330 0
 2576 01b8 1E00A0E3 		mov	r0, #30
 2577 01bc 5010A0E3 		mov	r1, #80
 2578 01c0 0F20A0E3 		mov	r2, #15
 2579 01c4 4C309FE5 		ldr	r3, .L6+28
 2580 01c8 FEFFFFEB 		bl	lcd_puts
 331:../proyecto.c **** 	uart0_puts( "  4 - Sobre mi\n" );
 2581              		.loc 1 331 0
 2582 01cc 48009FE5 		ldr	r0, .L6+32
 2583 01d0 FEFFFFEB 		bl	uart0_puts
 332:../proyecto.c **** 	lcd_puts( 30, 96, BLACK,"5 : Salir" );
 2584              		.loc 1 332 0
 2585 01d4 1E00A0E3 		mov	r0, #30
 2586 01d8 6010A0E3 		mov	r1, #96
 2587 01dc 0F20A0E3 		mov	r2, #15
 2588 01e0 38309FE5 		ldr	r3, .L6+36
 2589 01e4 FEFFFFEB 		bl	lcd_puts
 333:../proyecto.c **** 	uart0_puts( "  5 - Salir\n" );
 2590              		.loc 1 333 0
 2591 01e8 34009FE5 		ldr	r0, .L6+40
 2592 01ec FEFFFFEB 		bl	uart0_puts
 334:../proyecto.c **** }
 2593              		.loc 1 334 0
 2594 01f0 0CD04BE2 		sub	sp, fp, #12
 2595 01f4 00689DE8 		ldmfd	sp, {fp, sp, lr}
 2596 01f8 1EFF2FE1 		bx	lr
 2597              	.L7:
 2598              		.align	2
 2599              	.L6:
 2600 01fc 36010000 		.word	310
 2601 0200 84000000 		.word	.LC6
 2602 0204 90000000 		.word	.LC7
 2603 0208 A0000000 		.word	.LC8
 2604 020c AC000000 		.word	.LC9
 2605 0210 BC000000 		.word	.LC10
 2606 0214 C8000000 		.word	.LC11
 2607 0218 D8000000 		.word	.LC12
 2608 021c E8000000 		.word	.LC13
 2609 0220 F8000000 		.word	.LC14
 2610 0224 04010000 		.word	.LC15
 2611              		.cfi_endproc
 2612              	.LFE1:
 2614              		.align	2
 2615              		.global	handleMainOption
 2617              	handleMainOption:
 2618              	.LFB2:
 335:../proyecto.c **** 
 336:../proyecto.c **** void handleMainOption(int8 mainOption){
 2619              		.loc 1 336 0
 2620              		.cfi_startproc
 2621              		@ Function supports interworking.
 2622              		@ args = 0, pretend = 0, frame = 8
 2623              		@ frame_needed = 1, uses_anonymous_args = 0
 2624 0228 0DC0A0E1 		mov	ip, sp
 2625              	.LCFI4:
 2626              		.cfi_def_cfa_register 12
 2627 022c 00D82DE9 		stmfd	sp!, {fp, ip, lr, pc}
 2628 0230 04B04CE2 		sub	fp, ip, #4
 2629              		.cfi_offset 14, -8
 2630              		.cfi_offset 13, -12
 2631              		.cfi_offset 11, -16
 2632              	.LCFI5:
 2633              		.cfi_def_cfa 11, 4
 2634 0234 08D04DE2 		sub	sp, sp, #8
 2635 0238 0030A0E1 		mov	r3, r0
 2636 023c 0D304BE5 		strb	r3, [fp, #-13]
 337:../proyecto.c **** 	switch (mainOption)
 2637              		.loc 1 337 0
 2638 0240 DD305BE1 		ldrsb	r3, [fp, #-13]
 2639 0244 040053E3 		cmp	r3, #4
 2640 0248 03F19F97 		ldrls	pc, [pc, r3, asl #2]
 2641 024c 100000EA 		b	.L8
 2642              	.L15:
 2643 0250 64020000 		.word	.L10
 2644 0254 6C020000 		.word	.L11
 2645 0258 74020000 		.word	.L12
 2646 025c 7C020000 		.word	.L13
 2647 0260 84020000 		.word	.L14
 2648              	.L10:
 338:../proyecto.c **** 	{
 339:../proyecto.c **** 		case KEYPAD_KEY0:
 340:../proyecto.c **** 			levelOne();
 2649              		.loc 1 340 0
 2650 0264 FEFFFFEB 		bl	levelOne
 341:../proyecto.c **** 			break;
 2651              		.loc 1 341 0
 2652 0268 090000EA 		b	.L8
 2653              	.L11:
 342:../proyecto.c **** 		case KEYPAD_KEY1:
 343:../proyecto.c **** 			levelTwo();
 2654              		.loc 1 343 0
 2655 026c FEFFFFEB 		bl	levelTwo
 344:../proyecto.c **** 			break;
 2656              		.loc 1 344 0
 2657 0270 070000EA 		b	.L8
 2658              	.L12:
 345:../proyecto.c **** 		case KEYPAD_KEY2:
 346:../proyecto.c **** 			extrasMenu();
 2659              		.loc 1 346 0
 2660 0274 FEFFFFEB 		bl	extrasMenu
 347:../proyecto.c **** 			break;
 2661              		.loc 1 347 0
 2662 0278 050000EA 		b	.L8
 2663              	.L13:
 348:../proyecto.c **** 		case KEYPAD_KEY3:
 349:../proyecto.c **** 			showAbout();
 2664              		.loc 1 349 0
 2665 027c FEFFFFEB 		bl	showAbout
 350:../proyecto.c **** 			break;
 2666              		.loc 1 350 0
 2667 0280 030000EA 		b	.L8
 2668              	.L14:
 351:../proyecto.c **** 		case KEYPAD_KEY4:
 352:../proyecto.c **** 			close = TRUE;
 2669              		.loc 1 352 0
 2670 0284 14309FE5 		ldr	r3, .L16
 2671 0288 0120A0E3 		mov	r2, #1
 2672 028c 0020C3E5 		strb	r2, [r3, #0]
 353:../proyecto.c **** 			break;
 2673              		.loc 1 353 0
 2674 0290 0000A0E1 		mov	r0, r0	@ nop
 2675              	.L8:
 354:../proyecto.c **** 		case KEYPAD_FAILURE:
 355:../proyecto.c **** 			uart0_puts( "  - KEYPAD FAILURE\n" );
 356:../proyecto.c **** 			break;
 357:../proyecto.c **** 	}	
 358:../proyecto.c **** }
 2676              		.loc 1 358 0
 2677 0294 0CD04BE2 		sub	sp, fp, #12
 2678 0298 00689DE8 		ldmfd	sp, {fp, sp, lr}
 2679 029c 1EFF2FE1 		bx	lr
 2680              	.L17:
 2681              		.align	2
 2682              	.L16:
 2683 02a0 00000000 		.word	close
 2684              		.cfi_endproc
 2685              	.LFE2:
 2687              		.section	.rodata
 2688 0111 000000   		.align	2
 2689              	.LC16:
 2690 0114 20204E69 		.ascii	"  Nivel 1\012    \000"
 2690      76656C20 
 2690      310A2020 
 2690      202000
 2691 0123 00       		.align	2
 2692              	.LC17:
 2693 0124 20204B65 		.ascii	"  Keypad 0 -> A\012    \000"
 2693      79706164 
 2693      2030202D 
 2693      3E20410A 
 2693      20202020 
 2694 0139 000000   		.align	2
 2695              	.LC18:
 2696 013c 20204B65 		.ascii	"  Keypad 1 -> B\012    \000"
 2696      79706164 
 2696      2031202D 
 2696      3E20420A 
 2696      20202020 
 2697 0151 000000   		.align	2
 2698              	.LC19:
 2699 0154 20204B65 		.ascii	"  Keypad 2 -> Atras\012    \000"
 2699      79706164 
 2699      2032202D 
 2699      3E204174 
 2699      7261730A 
 2700 016d 000000   		.align	2
 2701              	.LC20:
 2702 0170 31203A20 		.ascii	"1 : A\000"
 2702      4100
 2703 0176 0000     		.align	2
 2704              	.LC21:
 2705 0178 32203A20 		.ascii	"2 : B\000"
 2705      4200
 2706 017e 0000     		.align	2
 2707              	.LC22:
 2708 0180 33203A20 		.ascii	"3 : Atras\000"
 2708      41747261 
 2708      7300
 2709 018a 0000     		.align	2
 2710              	.LC23:
 2711 018c 4D69206D 		.ascii	"Mi mam\341 me o\355a\000"
 2711      616DE120 
 2711      6D65206F 
 2711      ED6100
 2712 019b 00       		.align	2
 2713              	.LC24:
 2714 019c 4D69206D 		.ascii	"Mi mam\341 me mima\000"
 2714      616DE120 
 2714      6D65206D 
 2714      696D6100 
 2715              		.text
 2716              		.align	2
 2717              		.global	levelOne
 2719              	levelOne:
 2720              	.LFB3:
 359:../proyecto.c **** 
 360:../proyecto.c **** /*TERMINADO?*/
 361:../proyecto.c **** void levelOne(){
 2721              		.loc 1 361 0
 2722              		.cfi_startproc
 2723              		@ Function supports interworking.
 2724              		@ args = 0, pretend = 0, frame = 8
 2725              		@ frame_needed = 1, uses_anonymous_args = 0
 2726 02a4 0DC0A0E1 		mov	ip, sp
 2727              	.LCFI6:
 2728              		.cfi_def_cfa_register 12
 2729 02a8 00D82DE9 		stmfd	sp!, {fp, ip, lr, pc}
 2730 02ac 04B04CE2 		sub	fp, ip, #4
 2731              		.cfi_offset 14, -8
 2732              		.cfi_offset 13, -12
 2733              		.cfi_offset 11, -16
 2734              	.LCFI7:
 2735              		.cfi_def_cfa 11, 4
 2736 02b0 08D04DE2 		sub	sp, sp, #8
 362:../proyecto.c **** 	uint8 pulsado, pulsado2;
 363:../proyecto.c **** 	boolean levelOneBack;
 364:../proyecto.c **** 	boolean atras;
 365:../proyecto.c **** 	
 366:../proyecto.c **** 	uda1341ts_setvol( VOL_MED );
 2737              		.loc 1 366 0
 2738 02b4 2000A0E3 		mov	r0, #32
 2739 02b8 FEFFFFEB 		bl	uda1341ts_setvol
 367:../proyecto.c **** 	lcd_clear();
 2740              		.loc 1 367 0
 2741 02bc FEFFFFEB 		bl	lcd_clear
 2742              	.L26:
 368:../proyecto.c **** 	
 369:../proyecto.c **** 	do{
 370:../proyecto.c **** 		uart0_puts( "  Nivel 1\n    " );
 2743              		.loc 1 370 0
 2744 02c0 40019FE5 		ldr	r0, .L27
 2745 02c4 FEFFFFEB 		bl	uart0_puts
 371:../proyecto.c **** 		uart0_puts( "  Keypad 0 -> A\n    " );
 2746              		.loc 1 371 0
 2747 02c8 3C019FE5 		ldr	r0, .L27+4
 2748 02cc FEFFFFEB 		bl	uart0_puts
 372:../proyecto.c **** 		uart0_puts( "  Keypad 1 -> B\n    " );
 2749              		.loc 1 372 0
 2750 02d0 38019FE5 		ldr	r0, .L27+8
 2751 02d4 FEFFFFEB 		bl	uart0_puts
 373:../proyecto.c **** 		uart0_puts( "  Keypad 2 -> Atras\n    " );
 2752              		.loc 1 373 0
 2753 02d8 34019FE5 		ldr	r0, .L27+12
 2754 02dc FEFFFFEB 		bl	uart0_puts
 374:../proyecto.c **** 		lcd_clear();
 2755              		.loc 1 374 0
 2756 02e0 FEFFFFEB 		bl	lcd_clear
 375:../proyecto.c **** 		lcd_puts( 30, 32, BLACK,"1 : A" );
 2757              		.loc 1 375 0
 2758 02e4 1E00A0E3 		mov	r0, #30
 2759 02e8 2010A0E3 		mov	r1, #32
 2760 02ec 0F20A0E3 		mov	r2, #15
 2761 02f0 20319FE5 		ldr	r3, .L27+16
 2762 02f4 FEFFFFEB 		bl	lcd_puts
 376:../proyecto.c **** 		lcd_puts( 30, 48, BLACK,"2 : B" );
 2763              		.loc 1 376 0
 2764 02f8 1E00A0E3 		mov	r0, #30
 2765 02fc 3010A0E3 		mov	r1, #48
 2766 0300 0F20A0E3 		mov	r2, #15
 2767 0304 10319FE5 		ldr	r3, .L27+20
 2768 0308 FEFFFFEB 		bl	lcd_puts
 377:../proyecto.c **** 		lcd_puts( 30, 64, BLACK,"3 : Atras" );
 2769              		.loc 1 377 0
 2770 030c 1E00A0E3 		mov	r0, #30
 2771 0310 4010A0E3 		mov	r1, #64
 2772 0314 0F20A0E3 		mov	r2, #15
 2773 0318 00319FE5 		ldr	r3, .L27+24
 2774 031c FEFFFFEB 		bl	lcd_puts
 378:../proyecto.c **** 
 379:../proyecto.c **** 		levelOneBack = FALSE;
 2775              		.loc 1 379 0
 2776 0320 0030A0E3 		mov	r3, #0
 2777 0324 0D304BE5 		strb	r3, [fp, #-13]
 380:../proyecto.c **** 		atras = FALSE;
 2778              		.loc 1 380 0
 2779 0328 0030A0E3 		mov	r3, #0
 2780 032c 0E304BE5 		strb	r3, [fp, #-14]
 381:../proyecto.c **** 		pulsado = keypad_getchar();
 2781              		.loc 1 381 0
 2782 0330 FEFFFFEB 		bl	keypad_getchar
 2783 0334 0030A0E1 		mov	r3, r0
 2784 0338 0F304BE5 		strb	r3, [fp, #-15]
 382:../proyecto.c **** 		if(pulsado == KEYPAD_KEY0){
 2785              		.loc 1 382 0
 2786 033c 0F305BE5 		ldrb	r3, [fp, #-15]	@ zero_extendqisi2
 2787 0340 000053E3 		cmp	r3, #0
 2788 0344 1000001A 		bne	.L19
 383:../proyecto.c **** 			lcd_clear();
 2789              		.loc 1 383 0
 2790 0348 FEFFFFEB 		bl	lcd_clear
 384:../proyecto.c **** 			lcd_putWallpaper( L2D1 );
 2791              		.loc 1 384 0
 2792 034c D0009FE5 		ldr	r0, .L27+28
 2793 0350 FEFFFFEB 		bl	lcd_putWallpaper
 2794              	.L21:
 385:../proyecto.c **** 			do{
 386:../proyecto.c **** 				iis_textToSpeech( "Mi mamá me oía" );
 2795              		.loc 1 386 0
 2796 0354 CC009FE5 		ldr	r0, .L27+32
 2797 0358 FEFFFFEB 		bl	iis_textToSpeech
 387:../proyecto.c **** 				pulsado2 = pb_getchar();
 2798              		.loc 1 387 0
 2799 035c FEFFFFEB 		bl	pb_getchar
 2800 0360 0030A0E1 		mov	r3, r0
 2801 0364 10304BE5 		strb	r3, [fp, #-16]
 388:../proyecto.c **** 				if(pulsado2 == PB_LEFT){
 2802              		.loc 1 388 0
 2803 0368 10305BE5 		ldrb	r3, [fp, #-16]	@ zero_extendqisi2
 2804 036c 400053E3 		cmp	r3, #64
 2805 0370 0100001A 		bne	.L20
 389:../proyecto.c **** 					atras = TRUE;
 2806              		.loc 1 389 0
 2807 0374 0130A0E3 		mov	r3, #1
 2808 0378 0E304BE5 		strb	r3, [fp, #-14]
 2809              	.L20:
 390:../proyecto.c **** 				}
 391:../proyecto.c **** 			}while(!atras);
 2810              		.loc 1 391 0
 2811 037c 0E305BE5 		ldrb	r3, [fp, #-14]	@ zero_extendqisi2
 2812 0380 000053E3 		cmp	r3, #0
 2813 0384 F2FFFF0A 		beq	.L21
 2814 0388 180000EA 		b	.L22
 2815              	.L19:
 392:../proyecto.c **** 		}else if (pulsado == KEYPAD_KEY1){
 2816              		.loc 1 392 0
 2817 038c 0F305BE5 		ldrb	r3, [fp, #-15]	@ zero_extendqisi2
 2818 0390 010053E3 		cmp	r3, #1
 2819 0394 1000001A 		bne	.L23
 393:../proyecto.c **** 			lcd_clear();
 2820              		.loc 1 393 0
 2821 0398 FEFFFFEB 		bl	lcd_clear
 394:../proyecto.c **** 			lcd_putWallpaper( L2D2 );
 2822              		.loc 1 394 0
 2823 039c 88009FE5 		ldr	r0, .L27+36
 2824 03a0 FEFFFFEB 		bl	lcd_putWallpaper
 2825              	.L25:
 395:../proyecto.c **** 			do{
 396:../proyecto.c **** 				iis_textToSpeech( "Mi mamá me mima" );
 2826              		.loc 1 396 0
 2827 03a4 84009FE5 		ldr	r0, .L27+40
 2828 03a8 FEFFFFEB 		bl	iis_textToSpeech
 397:../proyecto.c **** 				pulsado2 = pb_getchar();
 2829              		.loc 1 397 0
 2830 03ac FEFFFFEB 		bl	pb_getchar
 2831 03b0 0030A0E1 		mov	r3, r0
 2832 03b4 10304BE5 		strb	r3, [fp, #-16]
 398:../proyecto.c **** 				if(pulsado2 == PB_LEFT){
 2833              		.loc 1 398 0
 2834 03b8 10305BE5 		ldrb	r3, [fp, #-16]	@ zero_extendqisi2
 2835 03bc 400053E3 		cmp	r3, #64
 2836 03c0 0100001A 		bne	.L24
 399:../proyecto.c **** 					atras = TRUE;
 2837              		.loc 1 399 0
 2838 03c4 0130A0E3 		mov	r3, #1
 2839 03c8 0E304BE5 		strb	r3, [fp, #-14]
 2840              	.L24:
 400:../proyecto.c **** 				}
 401:../proyecto.c **** 			}while(!atras);
 2841              		.loc 1 401 0
 2842 03cc 0E305BE5 		ldrb	r3, [fp, #-14]	@ zero_extendqisi2
 2843 03d0 000053E3 		cmp	r3, #0
 2844 03d4 F2FFFF0A 		beq	.L25
 2845 03d8 040000EA 		b	.L22
 2846              	.L23:
 402:../proyecto.c **** 		}else if (pulsado == KEYPAD_KEY2){
 2847              		.loc 1 402 0
 2848 03dc 0F305BE5 		ldrb	r3, [fp, #-15]	@ zero_extendqisi2
 2849 03e0 020053E3 		cmp	r3, #2
 2850 03e4 0100001A 		bne	.L22
 403:../proyecto.c **** 			levelOneBack = TRUE;
 2851              		.loc 1 403 0
 2852 03e8 0130A0E3 		mov	r3, #1
 2853 03ec 0D304BE5 		strb	r3, [fp, #-13]
 2854              	.L22:
 404:../proyecto.c **** 		}
 405:../proyecto.c **** 	}while(levelOneBack == FALSE);
 2855              		.loc 1 405 0
 2856 03f0 0D305BE5 		ldrb	r3, [fp, #-13]	@ zero_extendqisi2
 2857 03f4 000053E3 		cmp	r3, #0
 2858 03f8 B0FFFF0A 		beq	.L26
 406:../proyecto.c **** }
 2859              		.loc 1 406 0
 2860 03fc 0CD04BE2 		sub	sp, fp, #12
 2861 0400 00689DE8 		ldmfd	sp, {fp, sp, lr}
 2862 0404 1EFF2FE1 		bx	lr
 2863              	.L28:
 2864              		.align	2
 2865              	.L27:
 2866 0408 14010000 		.word	.LC16
 2867 040c 24010000 		.word	.LC17
 2868 0410 3C010000 		.word	.LC18
 2869 0414 54010000 		.word	.LC19
 2870 0418 70010000 		.word	.LC20
 2871 041c 78010000 		.word	.LC21
 2872 0420 80010000 		.word	.LC22
 2873 0424 00977C0C 		.word	209491712
 2874 0428 8C010000 		.word	.LC23
 2875 042c 002E7D0C 		.word	209530368
 2876 0430 9C010000 		.word	.LC24
 2877              		.cfi_endproc
 2878              	.LFE3:
 2880              		.section	.rodata
 2881              		.align	2
 2882              	.LC25:
 2883 01ac 20204E69 		.ascii	"  Nivel 2\012    \000"
 2883      76656C20 
 2883      320A2020 
 2883      202000
 2884 01bb 00       		.align	2
 2885              	.LC26:
 2886 01bc 4D69206D 		.ascii	"Mi mam\341 toma t\351\000"
 2886      616DE120 
 2886      746F6D61 
 2886      2074E900 
 2887              		.align	2
 2888              	.LC27:
 2889 01cc 4D692074 		.ascii	"Mi t\355o tom\363 tomate\000"
 2889      ED6F2074 
 2889      6F6DF320 
 2889      746F6D61 
 2889      746500
 2890              		.text
 2891              		.align	2
 2892              		.global	levelTwo
 2894              	levelTwo:
 2895              	.LFB4:
 407:../proyecto.c **** 
 408:../proyecto.c **** /*TERMINADO?*/
 409:../proyecto.c **** void levelTwo(){
 2896              		.loc 1 409 0
 2897              		.cfi_startproc
 2898              		@ Function supports interworking.
 2899              		@ args = 0, pretend = 0, frame = 8
 2900              		@ frame_needed = 1, uses_anonymous_args = 0
 2901 0434 0DC0A0E1 		mov	ip, sp
 2902              	.LCFI8:
 2903              		.cfi_def_cfa_register 12
 2904 0438 00D82DE9 		stmfd	sp!, {fp, ip, lr, pc}
 2905 043c 04B04CE2 		sub	fp, ip, #4
 2906              		.cfi_offset 14, -8
 2907              		.cfi_offset 13, -12
 2908              		.cfi_offset 11, -16
 2909              	.LCFI9:
 2910              		.cfi_def_cfa 11, 4
 2911 0440 08D04DE2 		sub	sp, sp, #8
 410:../proyecto.c **** 	
 411:../proyecto.c **** 	uint8 pulsado, pulsado2;
 412:../proyecto.c **** 	boolean levelTwoBack;
 413:../proyecto.c **** 	boolean atras;
 414:../proyecto.c **** 	
 415:../proyecto.c **** 	uda1341ts_setvol( VOL_MED );
 2912              		.loc 1 415 0
 2913 0444 2000A0E3 		mov	r0, #32
 2914 0448 FEFFFFEB 		bl	uda1341ts_setvol
 416:../proyecto.c **** 	lcd_clear();
 2915              		.loc 1 416 0
 2916 044c FEFFFFEB 		bl	lcd_clear
 2917              	.L38:
 417:../proyecto.c **** 	
 418:../proyecto.c **** 	do{
 419:../proyecto.c **** 		uart0_puts( "  Nivel 2\n    " );
 2918              		.loc 1 419 0
 2919 0450 4C019FE5 		ldr	r0, .L39
 2920 0454 FEFFFFEB 		bl	uart0_puts
 420:../proyecto.c **** 		uart0_puts( "  Keypad 0 -> A\n    " );
 2921              		.loc 1 420 0
 2922 0458 48019FE5 		ldr	r0, .L39+4
 2923 045c FEFFFFEB 		bl	uart0_puts
 421:../proyecto.c **** 		uart0_puts( "  Keypad 1 -> B\n    " );
 2924              		.loc 1 421 0
 2925 0460 44019FE5 		ldr	r0, .L39+8
 2926 0464 FEFFFFEB 		bl	uart0_puts
 422:../proyecto.c **** 		uart0_puts( "  Keypad 2 -> Atras\n    " );
 2927              		.loc 1 422 0
 2928 0468 40019FE5 		ldr	r0, .L39+12
 2929 046c FEFFFFEB 		bl	uart0_puts
 423:../proyecto.c **** 		lcd_clear();
 2930              		.loc 1 423 0
 2931 0470 FEFFFFEB 		bl	lcd_clear
 424:../proyecto.c **** 		lcd_puts( 30, 32, BLACK,"1 : A" );
 2932              		.loc 1 424 0
 2933 0474 1E00A0E3 		mov	r0, #30
 2934 0478 2010A0E3 		mov	r1, #32
 2935 047c 0F20A0E3 		mov	r2, #15
 2936 0480 2C319FE5 		ldr	r3, .L39+16
 2937 0484 FEFFFFEB 		bl	lcd_puts
 425:../proyecto.c **** 		lcd_puts( 30, 48, BLACK,"2 : B" );
 2938              		.loc 1 425 0
 2939 0488 1E00A0E3 		mov	r0, #30
 2940 048c 3010A0E3 		mov	r1, #48
 2941 0490 0F20A0E3 		mov	r2, #15
 2942 0494 1C319FE5 		ldr	r3, .L39+20
 2943 0498 FEFFFFEB 		bl	lcd_puts
 426:../proyecto.c **** 		lcd_puts( 30, 64, BLACK,"3 : Atras" );
 2944              		.loc 1 426 0
 2945 049c 1E00A0E3 		mov	r0, #30
 2946 04a0 4010A0E3 		mov	r1, #64
 2947 04a4 0F20A0E3 		mov	r2, #15
 2948 04a8 0C319FE5 		ldr	r3, .L39+24
 2949 04ac FEFFFFEB 		bl	lcd_puts
 427:../proyecto.c **** 
 428:../proyecto.c **** 		levelTwoBack = FALSE;
 2950              		.loc 1 428 0
 2951 04b0 0030A0E3 		mov	r3, #0
 2952 04b4 0D304BE5 		strb	r3, [fp, #-13]
 429:../proyecto.c **** 		atras = FALSE;
 2953              		.loc 1 429 0
 2954 04b8 0030A0E3 		mov	r3, #0
 2955 04bc 0E304BE5 		strb	r3, [fp, #-14]
 430:../proyecto.c **** 		pulsado = keypad_getchar();
 2956              		.loc 1 430 0
 2957 04c0 FEFFFFEB 		bl	keypad_getchar
 2958 04c4 0030A0E1 		mov	r3, r0
 2959 04c8 0F304BE5 		strb	r3, [fp, #-15]
 431:../proyecto.c **** 		if(pulsado == KEYPAD_KEY0){
 2960              		.loc 1 431 0
 2961 04cc 0F305BE5 		ldrb	r3, [fp, #-15]	@ zero_extendqisi2
 2962 04d0 000053E3 		cmp	r3, #0
 2963 04d4 1300001A 		bne	.L30
 432:../proyecto.c **** 			lcd_clear();
 2964              		.loc 1 432 0
 2965 04d8 FEFFFFEB 		bl	lcd_clear
 433:../proyecto.c **** 			lcd_putWallpaper( L3D1 );
 2966              		.loc 1 433 0
 2967 04dc DC009FE5 		ldr	r0, .L39+28
 2968 04e0 FEFFFFEB 		bl	lcd_putWallpaper
 2969              	.L33:
 434:../proyecto.c **** 			do{
 435:../proyecto.c **** 				iis_textToSpeech( "Mi mamá toma té" );
 2970              		.loc 1 435 0
 2971 04e4 D8009FE5 		ldr	r0, .L39+32
 2972 04e8 FEFFFFEB 		bl	iis_textToSpeech
 436:../proyecto.c **** 				pulsado2 = pb_getchar();
 2973              		.loc 1 436 0
 2974 04ec FEFFFFEB 		bl	pb_getchar
 2975 04f0 0030A0E1 		mov	r3, r0
 2976 04f4 10304BE5 		strb	r3, [fp, #-16]
 437:../proyecto.c **** 				if(pulsado2 == PB_LEFT){
 2977              		.loc 1 437 0
 2978 04f8 10305BE5 		ldrb	r3, [fp, #-16]	@ zero_extendqisi2
 2979 04fc 400053E3 		cmp	r3, #64
 2980 0500 0200001A 		bne	.L31
 438:../proyecto.c **** 					atras = TRUE;
 2981              		.loc 1 438 0
 2982 0504 0130A0E3 		mov	r3, #1
 2983 0508 0E304BE5 		strb	r3, [fp, #-14]
 2984 050c 010000EA 		b	.L32
 2985              	.L31:
 439:../proyecto.c **** 				}else{
 440:../proyecto.c **** 					atras = FALSE;
 2986              		.loc 1 440 0
 2987 0510 0030A0E3 		mov	r3, #0
 2988 0514 0E304BE5 		strb	r3, [fp, #-14]
 2989              	.L32:
 441:../proyecto.c **** 				}
 442:../proyecto.c **** 			}while(!atras);
 2990              		.loc 1 442 0
 2991 0518 0E305BE5 		ldrb	r3, [fp, #-14]	@ zero_extendqisi2
 2992 051c 000053E3 		cmp	r3, #0
 2993 0520 EFFFFF0A 		beq	.L33
 2994 0524 180000EA 		b	.L34
 2995              	.L30:
 443:../proyecto.c **** 		}else if (pulsado == KEYPAD_KEY1){
 2996              		.loc 1 443 0
 2997 0528 0F305BE5 		ldrb	r3, [fp, #-15]	@ zero_extendqisi2
 2998 052c 010053E3 		cmp	r3, #1
 2999 0530 1000001A 		bne	.L35
 444:../proyecto.c **** 			lcd_clear();
 3000              		.loc 1 444 0
 3001 0534 FEFFFFEB 		bl	lcd_clear
 445:../proyecto.c **** 			lcd_putWallpaper( L3D2 );
 3002              		.loc 1 445 0
 3003 0538 88009FE5 		ldr	r0, .L39+36
 3004 053c FEFFFFEB 		bl	lcd_putWallpaper
 3005              	.L37:
 446:../proyecto.c **** 			do{
 447:../proyecto.c **** 				iis_textToSpeech( "Mi tío tomó tomate" );
 3006              		.loc 1 447 0
 3007 0540 84009FE5 		ldr	r0, .L39+40
 3008 0544 FEFFFFEB 		bl	iis_textToSpeech
 448:../proyecto.c **** 				pulsado2 = pb_getchar();
 3009              		.loc 1 448 0
 3010 0548 FEFFFFEB 		bl	pb_getchar
 3011 054c 0030A0E1 		mov	r3, r0
 3012 0550 10304BE5 		strb	r3, [fp, #-16]
 449:../proyecto.c **** 				if(pulsado2 == PB_LEFT){
 3013              		.loc 1 449 0
 3014 0554 10305BE5 		ldrb	r3, [fp, #-16]	@ zero_extendqisi2
 3015 0558 400053E3 		cmp	r3, #64
 3016 055c 0100001A 		bne	.L36
 450:../proyecto.c **** 					atras = TRUE;
 3017              		.loc 1 450 0
 3018 0560 0130A0E3 		mov	r3, #1
 3019 0564 0E304BE5 		strb	r3, [fp, #-14]
 3020              	.L36:
 451:../proyecto.c **** 				}
 452:../proyecto.c **** 			}while(!atras);
 3021              		.loc 1 452 0
 3022 0568 0E305BE5 		ldrb	r3, [fp, #-14]	@ zero_extendqisi2
 3023 056c 000053E3 		cmp	r3, #0
 3024 0570 F2FFFF0A 		beq	.L37
 3025 0574 040000EA 		b	.L34
 3026              	.L35:
 453:../proyecto.c **** 		}else if (pulsado == KEYPAD_KEY2){
 3027              		.loc 1 453 0
 3028 0578 0F305BE5 		ldrb	r3, [fp, #-15]	@ zero_extendqisi2
 3029 057c 020053E3 		cmp	r3, #2
 3030 0580 0100001A 		bne	.L34
 454:../proyecto.c **** 			levelTwoBack = TRUE;
 3031              		.loc 1 454 0
 3032 0584 0130A0E3 		mov	r3, #1
 3033 0588 0D304BE5 		strb	r3, [fp, #-13]
 3034              	.L34:
 455:../proyecto.c **** 		}
 456:../proyecto.c **** 	}while(levelTwoBack == FALSE);
 3035              		.loc 1 456 0
 3036 058c 0D305BE5 		ldrb	r3, [fp, #-13]	@ zero_extendqisi2
 3037 0590 000053E3 		cmp	r3, #0
 3038 0594 ADFFFF0A 		beq	.L38
 457:../proyecto.c **** }
 3039              		.loc 1 457 0
 3040 0598 0CD04BE2 		sub	sp, fp, #12
 3041 059c 00689DE8 		ldmfd	sp, {fp, sp, lr}
 3042 05a0 1EFF2FE1 		bx	lr
 3043              	.L40:
 3044              		.align	2
 3045              	.L39:
 3046 05a4 AC010000 		.word	.LC25
 3047 05a8 24010000 		.word	.LC17
 3048 05ac 3C010000 		.word	.LC18
 3049 05b0 54010000 		.word	.LC19
 3050 05b4 70010000 		.word	.LC20
 3051 05b8 78010000 		.word	.LC21
 3052 05bc 80010000 		.word	.LC22
 3053 05c0 00C57D0C 		.word	209569024
 3054 05c4 BC010000 		.word	.LC26
 3055 05c8 005C7E0C 		.word	209607680
 3056 05cc CC010000 		.word	.LC27
 3057              		.cfi_endproc
 3058              	.LFE4:
 3060              		.section	.rodata
 3061 01df 00       		.align	2
 3062              	.LC28:
 3063 01e0 31203A20 		.ascii	"1 : Escribe lo que quieras\000"
 3063      45736372 
 3063      69626520 
 3063      6C6F2071 
 3063      75652071 
 3064 01fb 00       		.align	2
 3065              	.LC29:
 3066 01fc 20203120 		.ascii	"  1 - Escribe lo que quieras\012\000"
 3066      2D204573 
 3066      63726962 
 3066      65206C6F 
 3066      20717565 
 3067 021a 0000     		.align	2
 3068              	.LC30:
 3069 021c 32203A20 		.ascii	"2 : Escuchate a ti mismo\000"
 3069      45736375 
 3069      63686174 
 3069      65206120 
 3069      7469206D 
 3070 0235 000000   		.align	2
 3071              	.LC31:
 3072 0238 20203220 		.ascii	"  2 - Escuchate a ti mismo\012\000"
 3072      2D204573 
 3072      63756368 
 3072      61746520 
 3072      61207469 
 3073              		.align	2
 3074              	.LC32:
 3075 0254 20203320 		.ascii	"  3 - Atras\012\000"
 3075      2D204174 
 3075      7261730A 
 3075      00
 3076              		.text
 3077              		.align	2
 3078              		.global	extrasMenu
 3080              	extrasMenu:
 3081              	.LFB5:
 458:../proyecto.c **** 
 459:../proyecto.c **** /*TERMINADO*/
 460:../proyecto.c **** void extrasMenu(){	
 3082              		.loc 1 460 0
 3083              		.cfi_startproc
 3084              		@ Function supports interworking.
 3085              		@ args = 0, pretend = 0, frame = 0
 3086              		@ frame_needed = 1, uses_anonymous_args = 0
 3087 05d0 0DC0A0E1 		mov	ip, sp
 3088              	.LCFI10:
 3089              		.cfi_def_cfa_register 12
 3090 05d4 00D82DE9 		stmfd	sp!, {fp, ip, lr, pc}
 3091 05d8 04B04CE2 		sub	fp, ip, #4
 3092              		.cfi_offset 14, -8
 3093              		.cfi_offset 13, -12
 3094              		.cfi_offset 11, -16
 3095              	.LCFI11:
 3096              		.cfi_def_cfa 11, 4
 3097 05dc 08D04DE2 		sub	sp, sp, #8
 3098              	.L42:
 461:../proyecto.c **** 	do{
 462:../proyecto.c **** 		lcd_clear();
 3099              		.loc 1 462 0 discriminator 1
 3100 05e0 FEFFFFEB 		bl	lcd_clear
 463:../proyecto.c **** 		lcd_draw_box( 10, 10, 310, 230, BLACK, 5 );
 3101              		.loc 1 463 0 discriminator 1
 3102 05e4 0F30A0E3 		mov	r3, #15
 3103 05e8 00308DE5 		str	r3, [sp, #0]
 3104 05ec 0530A0E3 		mov	r3, #5
 3105 05f0 04308DE5 		str	r3, [sp, #4]
 3106 05f4 0A00A0E3 		mov	r0, #10
 3107 05f8 0A10A0E3 		mov	r1, #10
 3108 05fc 98209FE5 		ldr	r2, .L43
 3109 0600 E630A0E3 		mov	r3, #230
 3110 0604 FEFFFFEB 		bl	lcd_draw_box
 464:../proyecto.c **** 		lcd_puts( 30, 32, BLACK,"1 : Escribe lo que quieras" );
 3111              		.loc 1 464 0 discriminator 1
 3112 0608 1E00A0E3 		mov	r0, #30
 3113 060c 2010A0E3 		mov	r1, #32
 3114 0610 0F20A0E3 		mov	r2, #15
 3115 0614 84309FE5 		ldr	r3, .L43+4
 3116 0618 FEFFFFEB 		bl	lcd_puts
 465:../proyecto.c **** 		uart0_puts( "  1 - Escribe lo que quieras\n" );
 3117              		.loc 1 465 0 discriminator 1
 3118 061c 80009FE5 		ldr	r0, .L43+8
 3119 0620 FEFFFFEB 		bl	uart0_puts
 466:../proyecto.c **** 		lcd_puts( 30, 48, BLACK,"2 : Escuchate a ti mismo" );
 3120              		.loc 1 466 0 discriminator 1
 3121 0624 1E00A0E3 		mov	r0, #30
 3122 0628 3010A0E3 		mov	r1, #48
 3123 062c 0F20A0E3 		mov	r2, #15
 3124 0630 70309FE5 		ldr	r3, .L43+12
 3125 0634 FEFFFFEB 		bl	lcd_puts
 467:../proyecto.c **** 		uart0_puts( "  2 - Escuchate a ti mismo\n" );
 3126              		.loc 1 467 0 discriminator 1
 3127 0638 6C009FE5 		ldr	r0, .L43+16
 3128 063c FEFFFFEB 		bl	uart0_puts
 468:../proyecto.c **** 		lcd_puts( 30, 64, BLACK,"3 : Atras" );
 3129              		.loc 1 468 0 discriminator 1
 3130 0640 1E00A0E3 		mov	r0, #30
 3131 0644 4010A0E3 		mov	r1, #64
 3132 0648 0F20A0E3 		mov	r2, #15
 3133 064c 5C309FE5 		ldr	r3, .L43+20
 3134 0650 FEFFFFEB 		bl	lcd_puts
 469:../proyecto.c **** 		uart0_puts( "  3 - Atras\n" );
 3135              		.loc 1 469 0 discriminator 1
 3136 0654 58009FE5 		ldr	r0, .L43+24
 3137 0658 FEFFFFEB 		bl	uart0_puts
 470:../proyecto.c **** 		
 471:../proyecto.c **** 		extraOption = keypad_getchar();
 3138              		.loc 1 471 0 discriminator 1
 3139 065c FEFFFFEB 		bl	keypad_getchar
 3140 0660 0030A0E1 		mov	r3, r0
 3141 0664 0320A0E1 		mov	r2, r3
 3142 0668 48309FE5 		ldr	r3, .L43+28
 3143 066c 0020C3E5 		strb	r2, [r3, #0]
 472:../proyecto.c **** 		handleExtraMenuOption(extraOption);
 3144              		.loc 1 472 0 discriminator 1
 3145 0670 40309FE5 		ldr	r3, .L43+28
 3146 0674 0030D3E5 		ldrb	r3, [r3, #0]	@ zero_extendqisi2
 3147 0678 0300A0E1 		mov	r0, r3
 3148 067c FEFFFFEB 		bl	handleExtraMenuOption
 473:../proyecto.c **** 	}while(!back);
 3149              		.loc 1 473 0 discriminator 1
 3150 0680 34309FE5 		ldr	r3, .L43+32
 3151 0684 0030D3E5 		ldrb	r3, [r3, #0]	@ zero_extendqisi2
 3152 0688 000053E3 		cmp	r3, #0
 3153 068c D3FFFF0A 		beq	.L42
 474:../proyecto.c **** }
 3154              		.loc 1 474 0
 3155 0690 0CD04BE2 		sub	sp, fp, #12
 3156 0694 00689DE8 		ldmfd	sp, {fp, sp, lr}
 3157 0698 1EFF2FE1 		bx	lr
 3158              	.L44:
 3159              		.align	2
 3160              	.L43:
 3161 069c 36010000 		.word	310
 3162 06a0 E0010000 		.word	.LC28
 3163 06a4 FC010000 		.word	.LC29
 3164 06a8 1C020000 		.word	.LC30
 3165 06ac 38020000 		.word	.LC31
 3166 06b0 80010000 		.word	.LC22
 3167 06b4 54020000 		.word	.LC32
 3168 06b8 00000000 		.word	extraOption
 3169 06bc 00000000 		.word	back
 3170              		.cfi_endproc
 3171              	.LFE5:
 3173              		.section	.rodata
 3174 0261 000000   		.align	2
 3175              	.LC33:
 3176 0264 20202D20 		.ascii	"  - KEYPAD FAILURE\012\000"
 3176      4B455950 
 3176      41442046 
 3176      41494C55 
 3176      52450A00 
 3177              		.text
 3178              		.align	2
 3179              		.global	handleExtraMenuOption
 3181              	handleExtraMenuOption:
 3182              	.LFB6:
 475:../proyecto.c **** 
 476:../proyecto.c **** /*TERMINADO*/
 477:../proyecto.c **** void handleExtraMenuOption(uint8 extraOption){
 3183              		.loc 1 477 0
 3184              		.cfi_startproc
 3185              		@ Function supports interworking.
 3186              		@ args = 0, pretend = 0, frame = 8
 3187              		@ frame_needed = 1, uses_anonymous_args = 0
 3188 06c0 0DC0A0E1 		mov	ip, sp
 3189              	.LCFI12:
 3190              		.cfi_def_cfa_register 12
 3191 06c4 00D82DE9 		stmfd	sp!, {fp, ip, lr, pc}
 3192 06c8 04B04CE2 		sub	fp, ip, #4
 3193              		.cfi_offset 14, -8
 3194              		.cfi_offset 13, -12
 3195              		.cfi_offset 11, -16
 3196              	.LCFI13:
 3197              		.cfi_def_cfa 11, 4
 3198 06cc 08D04DE2 		sub	sp, sp, #8
 3199 06d0 0030A0E1 		mov	r3, r0
 3200 06d4 0D304BE5 		strb	r3, [fp, #-13]
 478:../proyecto.c **** 	switch (extraOption)
 3201              		.loc 1 478 0
 3202 06d8 0D305BE5 		ldrb	r3, [fp, #-13]	@ zero_extendqisi2
 3203 06dc 010053E3 		cmp	r3, #1
 3204 06e0 0B00000A 		beq	.L48
 3205 06e4 010053E3 		cmp	r3, #1
 3206 06e8 020000CA 		bgt	.L51
 3207 06ec 000053E3 		cmp	r3, #0
 3208 06f0 0500000A 		beq	.L47
 3209 06f4 0F0000EA 		b	.L45
 3210              	.L51:
 3211 06f8 020053E3 		cmp	r3, #2
 3212 06fc 0600000A 		beq	.L49
 3213 0700 FF0053E3 		cmp	r3, #255
 3214 0704 0800000A 		beq	.L50
 3215 0708 0A0000EA 		b	.L45
 3216              	.L47:
 479:../proyecto.c **** 	{
 480:../proyecto.c **** 		case KEYPAD_KEY0:
 481:../proyecto.c **** 			requestText();
 3217              		.loc 1 481 0
 3218 070c FEFFFFEB 		bl	requestText
 482:../proyecto.c **** 			break;
 3219              		.loc 1 482 0
 3220 0710 080000EA 		b	.L45
 3221              	.L48:
 483:../proyecto.c **** 		case KEYPAD_KEY1:
 484:../proyecto.c **** 			record();
 3222              		.loc 1 484 0
 3223 0714 FEFFFFEB 		bl	record
 485:../proyecto.c **** 			break;
 3224              		.loc 1 485 0
 3225 0718 060000EA 		b	.L45
 3226              	.L49:
 486:../proyecto.c **** 		case KEYPAD_KEY2:
 487:../proyecto.c **** 			back = TRUE;
 3227              		.loc 1 487 0
 3228 071c 20309FE5 		ldr	r3, .L52
 3229 0720 0120A0E3 		mov	r2, #1
 3230 0724 0020C3E5 		strb	r2, [r3, #0]
 488:../proyecto.c **** 			break;
 3231              		.loc 1 488 0
 3232 0728 020000EA 		b	.L45
 3233              	.L50:
 489:../proyecto.c **** 		case KEYPAD_FAILURE:
 490:../proyecto.c **** 			uart0_puts( "  - KEYPAD FAILURE\n" );
 3234              		.loc 1 490 0
 3235 072c 14009FE5 		ldr	r0, .L52+4
 3236 0730 FEFFFFEB 		bl	uart0_puts
 491:../proyecto.c **** 			break;
 3237              		.loc 1 491 0
 3238 0734 0000A0E1 		mov	r0, r0	@ nop
 3239              	.L45:
 492:../proyecto.c **** 	}	
 493:../proyecto.c **** }
 3240              		.loc 1 493 0
 3241 0738 0CD04BE2 		sub	sp, fp, #12
 3242 073c 00689DE8 		ldmfd	sp, {fp, sp, lr}
 3243 0740 1EFF2FE1 		bx	lr
 3244              	.L53:
 3245              		.align	2
 3246              	.L52:
 3247 0744 00000000 		.word	back
 3248 0748 64020000 		.word	.LC33
 3249              		.cfi_endproc
 3250              	.LFE6:
 3252              		.section	.rodata
 3253              		.align	2
 3254              	.LC34:
 3255 0278 20202D20 		.ascii	"  - Grabando\012    \000"
 3255      47726162 
 3255      616E646F 
 3255      0A202020 
 3255      2000
 3256 028a 0000     		.align	2
 3257              	.LC35:
 3258 028c 20202D20 		.ascii	"  - Reproduciendo\012    \000"
 3258      52657072 
 3258      6F647563 
 3258      69656E64 
 3258      6F0A2020 
 3259              		.text
 3260              		.align	2
 3261              		.global	record
 3263              	record:
 3264              	.LFB7:
 494:../proyecto.c **** 
 495:../proyecto.c **** /*TERMINADO*/
 496:../proyecto.c **** void record(){
 3265              		.loc 1 496 0
 3266              		.cfi_startproc
 3267              		@ Function supports interworking.
 3268              		@ args = 0, pretend = 0, frame = 0
 3269              		@ frame_needed = 1, uses_anonymous_args = 0
 3270 074c 0DC0A0E1 		mov	ip, sp
 3271              	.LCFI14:
 3272              		.cfi_def_cfa_register 12
 3273 0750 00D82DE9 		stmfd	sp!, {fp, ip, lr, pc}
 3274 0754 04B04CE2 		sub	fp, ip, #4
 3275              		.cfi_offset 14, -8
 3276              		.cfi_offset 13, -12
 3277              		.cfi_offset 11, -16
 3278              	.LCFI15:
 3279              		.cfi_def_cfa 11, 4
 497:../proyecto.c **** 	uart0_puts( "  - Grabando\n    " );
 3280              		.loc 1 497 0
 3281 0758 94009FE5 		ldr	r0, .L59
 3282 075c FEFFFFEB 		bl	uart0_puts
 498:../proyecto.c ****     segs_putchar( 8 );
 3283              		.loc 1 498 0
 3284 0760 0800A0E3 		mov	r0, #8
 3285 0764 FEFFFFEB 		bl	segs_putchar
 499:../proyecto.c ****     iis_rec( REC_BUFFER, REC_SIZE );
 3286              		.loc 1 499 0
 3287 0768 C706A0E3 		mov	r0, #208666624
 3288 076c 84109FE5 		ldr	r1, .L59+4
 3289 0770 FEFFFFEB 		bl	iis_rec
 500:../proyecto.c ****     while( iis_status() )
 3290              		.loc 1 500 0
 3291 0774 030000EA 		b	.L55
 3292              	.L56:
 3293              	.LBB2:
 501:../proyecto.c ****     {
 502:../proyecto.c ****     	sw_delay_ms( 500 );
 3294              		.loc 1 502 0
 3295 0778 7D0FA0E3 		mov	r0, #500
 3296 077c FEFFFFEB 		bl	sw_delay_ms
 503:../proyecto.c ****     	uart0_putchar( '.' );
 3297              		.loc 1 503 0
 3298 0780 2E00A0E3 		mov	r0, #46
 3299 0784 FEFFFFEB 		bl	uart0_putchar
 3300              	.L55:
 3301              	.LBE2:
 500:../proyecto.c ****     while( iis_status() )
 3302              		.loc 1 500 0 discriminator 1
 3303 0788 FEFFFFEB 		bl	iis_status
 3304 078c 0030A0E1 		mov	r3, r0
 3305 0790 000053E3 		cmp	r3, #0
 3306 0794 F7FFFF1A 		bne	.L56
 504:../proyecto.c ****     }
 505:../proyecto.c ****     segs_off();
 3307              		.loc 1 505 0
 3308 0798 FEFFFFEB 		bl	segs_off
 506:../proyecto.c ****     sw_delay_ms( 1500 );
 3309              		.loc 1 506 0
 3310 079c 58009FE5 		ldr	r0, .L59+8
 3311 07a0 FEFFFFEB 		bl	sw_delay_ms
 507:../proyecto.c **** 	uda1341ts_setvol( VOL_MAX );
 3312              		.loc 1 507 0
 3313 07a4 3F00A0E3 		mov	r0, #63
 3314 07a8 FEFFFFEB 		bl	uda1341ts_setvol
 508:../proyecto.c ****     uart0_puts( "  - Reproduciendo\n    " );
 3315              		.loc 1 508 0
 3316 07ac 4C009FE5 		ldr	r0, .L59+12
 3317 07b0 FEFFFFEB 		bl	uart0_puts
 509:../proyecto.c ****     iis_play( REC_BUFFER, REC_SIZE, OFF );
 3318              		.loc 1 509 0
 3319 07b4 C706A0E3 		mov	r0, #208666624
 3320 07b8 38109FE5 		ldr	r1, .L59+4
 3321 07bc 0020A0E3 		mov	r2, #0
 3322 07c0 FEFFFFEB 		bl	iis_play
 510:../proyecto.c ****     while( iis_status() )
 3323              		.loc 1 510 0
 3324 07c4 030000EA 		b	.L57
 3325              	.L58:
 511:../proyecto.c ****     {
 512:../proyecto.c ****     	sw_delay_ms( 500 );
 3326              		.loc 1 512 0
 3327 07c8 7D0FA0E3 		mov	r0, #500
 3328 07cc FEFFFFEB 		bl	sw_delay_ms
 513:../proyecto.c ****     	uart0_putchar( '.' );
 3329              		.loc 1 513 0
 3330 07d0 2E00A0E3 		mov	r0, #46
 3331 07d4 FEFFFFEB 		bl	uart0_putchar
 3332              	.L57:
 510:../proyecto.c ****     while( iis_status() )
 3333              		.loc 1 510 0 discriminator 1
 3334 07d8 FEFFFFEB 		bl	iis_status
 3335 07dc 0030A0E1 		mov	r3, r0
 3336 07e0 000053E3 		cmp	r3, #0
 3337 07e4 F7FFFF1A 		bne	.L58
 514:../proyecto.c ****     }
 515:../proyecto.c **** }
 3338              		.loc 1 515 0
 3339 07e8 0CD04BE2 		sub	sp, fp, #12
 3340 07ec 00689DE8 		ldmfd	sp, {fp, sp, lr}
 3341 07f0 1EFF2FE1 		bx	lr
 3342              	.L60:
 3343              		.align	2
 3344              	.L59:
 3345 07f4 78020000 		.word	.LC34
 3346 07f8 00EE0200 		.word	192000
 3347 07fc DC050000 		.word	1500
 3348 0800 8C020000 		.word	.LC35
 3349              		.cfi_endproc
 3350              	.LFE7:
 3352              		.section	.rodata
 3353 02a3 00       		.align	2
 3354              	.LC36:
 3355 02a4 45736372 		.ascii	"Escribe el sonido que quieras!\012\000"
 3355      69626520 
 3355      656C2073 
 3355      6F6E6964 
 3355      6F207175 
 3356              		.align	2
 3357              	.LC37:
 3358 02c4 45737065 		.ascii	"Esperando...\000"
 3358      72616E64 
 3358      6F2E2E2E 
 3358      00
 3359 02d1 000000   		.align	2
 3360              	.LC38:
 3361 02d4 52657072 		.ascii	"Reproduciendo...\000"
 3361      6F647563 
 3361      69656E64 
 3361      6F2E2E2E 
 3361      00
 3362              		.text
 3363              		.align	2
 3364              		.global	requestText
 3366              	requestText:
 3367              	.LFB8:
 516:../proyecto.c **** 
 517:../proyecto.c **** /*TERMINADO*/
 518:../proyecto.c **** void requestText(){
 3368              		.loc 1 518 0
 3369              		.cfi_startproc
 3370              		@ Function supports interworking.
 3371              		@ args = 0, pretend = 0, frame = 2000
 3372              		@ frame_needed = 1, uses_anonymous_args = 0
 3373 0804 0DC0A0E1 		mov	ip, sp
 3374              	.LCFI16:
 3375              		.cfi_def_cfa_register 12
 3376 0808 00D82DE9 		stmfd	sp!, {fp, ip, lr, pc}
 3377 080c 04B04CE2 		sub	fp, ip, #4
 3378              		.cfi_offset 14, -8
 3379              		.cfi_offset 13, -12
 3380              		.cfi_offset 11, -16
 3381              	.LCFI17:
 3382              		.cfi_def_cfa 11, 4
 3383 0810 7DDE4DE2 		sub	sp, sp, #2000
 519:../proyecto.c **** 	char text[TXT_MAXLEN];
 520:../proyecto.c **** 	
 521:../proyecto.c **** 	uart0_puts("Escribe el sonido que quieras!\n");
 3384              		.loc 1 521 0
 3385 0814 64009FE5 		ldr	r0, .L62
 3386 0818 FEFFFFEB 		bl	uart0_puts
 522:../proyecto.c **** 	lcd_clear();
 3387              		.loc 1 522 0
 3388 081c FEFFFFEB 		bl	lcd_clear
 523:../proyecto.c **** 	lcd_puts_x2( 50, 60, BLACK,"Esperando..." );
 3389              		.loc 1 523 0
 3390 0820 3200A0E3 		mov	r0, #50
 3391 0824 3C10A0E3 		mov	r1, #60
 3392 0828 0F20A0E3 		mov	r2, #15
 3393 082c 50309FE5 		ldr	r3, .L62+4
 3394 0830 FEFFFFEB 		bl	lcd_puts_x2
 524:../proyecto.c **** 	uart0_gets(text);
 3395              		.loc 1 524 0
 3396 0834 7D3E4BE2 		sub	r3, fp, #2000
 3397 0838 0C3043E2 		sub	r3, r3, #12
 3398 083c 0300A0E1 		mov	r0, r3
 3399 0840 FEFFFFEB 		bl	uart0_gets
 525:../proyecto.c **** 	
 526:../proyecto.c **** 	lcd_clear();
 3400              		.loc 1 526 0
 3401 0844 FEFFFFEB 		bl	lcd_clear
 527:../proyecto.c **** 	lcd_puts_x2( 50, 60, BLACK,"Reproduciendo..." );
 3402              		.loc 1 527 0
 3403 0848 3200A0E3 		mov	r0, #50
 3404 084c 3C10A0E3 		mov	r1, #60
 3405 0850 0F20A0E3 		mov	r2, #15
 3406 0854 2C309FE5 		ldr	r3, .L62+8
 3407 0858 FEFFFFEB 		bl	lcd_puts_x2
 528:../proyecto.c **** 
 529:../proyecto.c **** 	uda1341ts_setvol( VOL_MED );
 3408              		.loc 1 529 0
 3409 085c 2000A0E3 		mov	r0, #32
 3410 0860 FEFFFFEB 		bl	uda1341ts_setvol
 530:../proyecto.c **** 	iis_textToSpeech( text );
 3411              		.loc 1 530 0
 3412 0864 7D3E4BE2 		sub	r3, fp, #2000
 3413 0868 0C3043E2 		sub	r3, r3, #12
 3414 086c 0300A0E1 		mov	r0, r3
 3415 0870 FEFFFFEB 		bl	iis_textToSpeech
 531:../proyecto.c **** }
 3416              		.loc 1 531 0
 3417 0874 0CD04BE2 		sub	sp, fp, #12
 3418 0878 00689DE8 		ldmfd	sp, {fp, sp, lr}
 3419 087c 1EFF2FE1 		bx	lr
 3420              	.L63:
 3421              		.align	2
 3422              	.L62:
 3423 0880 A4020000 		.word	.LC36
 3424 0884 C4020000 		.word	.LC37
 3425 0888 D4020000 		.word	.LC38
 3426              		.cfi_endproc
 3427              	.LFE8:
 3429              		.section	.rodata
 3430 02e5 000000   		.align	2
 3431              	.LC39:
 3432 02e8 20202D20 		.ascii	"  - Proyecto Final de Alejandro Sacanell Nogales\012"
 3432      50726F79 
 3432      6563746F 
 3432      2046696E 
 3432      616C2064 
 3433 0319 00       		.ascii	"\000"
 3434 031a 0000     		.align	2
 3435              	.LC40:
 3436 031c 20202D20 		.ascii	"  - alejandro.sacanell@gmail.com\012\000"
 3436      616C656A 
 3436      616E6472 
 3436      6F2E7361 
 3436      63616E65 
 3437              		.text
 3438              		.align	2
 3439              		.global	showAbout
 3441              	showAbout:
 3442              	.LFB9:
 532:../proyecto.c **** 
 533:../proyecto.c **** /*TERMINADO*/
 534:../proyecto.c **** void showAbout(){
 3443              		.loc 1 534 0
 3444              		.cfi_startproc
 3445              		@ Function supports interworking.
 3446              		@ args = 0, pretend = 0, frame = 0
 3447              		@ frame_needed = 1, uses_anonymous_args = 0
 3448 088c 0DC0A0E1 		mov	ip, sp
 3449              	.LCFI18:
 3450              		.cfi_def_cfa_register 12
 3451 0890 00D82DE9 		stmfd	sp!, {fp, ip, lr, pc}
 3452 0894 04B04CE2 		sub	fp, ip, #4
 3453              		.cfi_offset 14, -8
 3454              		.cfi_offset 13, -12
 3455              		.cfi_offset 11, -16
 3456              	.LCFI19:
 3457              		.cfi_def_cfa 11, 4
 535:../proyecto.c **** 	uart0_puts( "  - Proyecto Final de Alejandro Sacanell Nogales\n" );
 3458              		.loc 1 535 0
 3459 0898 28009FE5 		ldr	r0, .L65
 3460 089c FEFFFFEB 		bl	uart0_puts
 536:../proyecto.c **** 	uart0_puts( "  - alejandro.sacanell@gmail.com\n" );
 3461              		.loc 1 536 0
 3462 08a0 24009FE5 		ldr	r0, .L65+4
 3463 08a4 FEFFFFEB 		bl	uart0_puts
 537:../proyecto.c **** 	lcd_clear();
 3464              		.loc 1 537 0
 3465 08a8 FEFFFFEB 		bl	lcd_clear
 538:../proyecto.c **** 	lcd_putWallpaper( ABOUT );
 3466              		.loc 1 538 0
 3467 08ac 1C009FE5 		ldr	r0, .L65+8
 3468 08b0 FEFFFFEB 		bl	lcd_putWallpaper
 539:../proyecto.c **** 	timer3_delay_s(5);
 3469              		.loc 1 539 0
 3470 08b4 0500A0E3 		mov	r0, #5
 3471 08b8 FEFFFFEB 		bl	timer3_delay_s
 540:../proyecto.c **** }
 3472              		.loc 1 540 0
 3473 08bc 0CD04BE2 		sub	sp, fp, #12
 3474 08c0 00689DE8 		ldmfd	sp, {fp, sp, lr}
 3475 08c4 1EFF2FE1 		bx	lr
 3476              	.L66:
 3477              		.align	2
 3478              	.L65:
 3479 08c8 E8020000 		.word	.LC39
 3480 08cc 1C030000 		.word	.LC40
 3481 08d0 00007C0C 		.word	209453056
 3482              		.cfi_endproc
 3483              	.LFE9:
 3485              		.align	2
 3486              		.global	iis_textToSpeech
 3488              	iis_textToSpeech:
 3489              	.LFB10:
 541:../proyecto.c **** 
 542:../proyecto.c **** 
 543:../proyecto.c **** //**NO TOCAR**//
 544:../proyecto.c **** //**MANEJO SINTETIZADOR**//
 545:../proyecto.c **** 
 546:../proyecto.c **** void iis_textToSpeech( char *texto ){
 3490              		.loc 1 546 0
 3491              		.cfi_startproc
 3492              		@ Function supports interworking.
 3493              		@ args = 0, pretend = 0, frame = 4016
 3494              		@ frame_needed = 1, uses_anonymous_args = 0
 3495 08d4 0DC0A0E1 		mov	ip, sp
 3496              	.LCFI20:
 3497              		.cfi_def_cfa_register 12
 3498 08d8 00D82DE9 		stmfd	sp!, {fp, ip, lr, pc}
 3499 08dc 04B04CE2 		sub	fp, ip, #4
 3500              		.cfi_offset 14, -8
 3501              		.cfi_offset 13, -12
 3502              		.cfi_offset 11, -16
 3503              	.LCFI21:
 3504              		.cfi_def_cfa 11, 4
 3505 08e0 FBDE4DE2 		sub	sp, sp, #4016
 3506 08e4 B80F0BE5 		str	r0, [fp, #-4024]
 547:../proyecto.c **** 	char *tp;
 548:../proyecto.c **** 	syllableId_t i;
 549:../proyecto.c **** 
 550:../proyecto.c **** 	char textoSimplificado[TXT_MAXLEN];
 551:../proyecto.c **** 	char textoFonetico[TXT_MAXLEN];
 552:../proyecto.c **** 
 553:../proyecto.c ****     faseMonolitera( texto, textoSimplificado );	        // Transforma el texto para que use un conj
 3507              		.loc 1 553 0
 3508 08e8 7D3E4BE2 		sub	r3, fp, #2000
 3509 08ec 0C3043E2 		sub	r3, r3, #12
 3510 08f0 083043E2 		sub	r3, r3, #8
 3511 08f4 B80F1BE5 		ldr	r0, [fp, #-4024]
 3512 08f8 0310A0E1 		mov	r1, r3
 3513 08fc FB0300EB 		bl	faseMonolitera
 554:../proyecto.c ****     faseBilitera( textoSimplificado, textoFonetico );   // Transforma el texto para que solo tenga
 3514              		.loc 1 554 0
 3515 0900 7D2E4BE2 		sub	r2, fp, #2000
 3516 0904 0C2042E2 		sub	r2, r2, #12
 3517 0908 082042E2 		sub	r2, r2, #8
 3518 090c FA3E4BE2 		sub	r3, fp, #4000
 3519 0910 0C3043E2 		sub	r3, r3, #12
 3520 0914 083043E2 		sub	r3, r3, #8
 3521 0918 0200A0E1 		mov	r0, r2
 3522 091c 0310A0E1 		mov	r1, r3
 3523 0920 BB0000EB 		bl	faseBilitera
 555:../proyecto.c ****     tp = textoFonetico;
 3524              		.loc 1 555 0
 3525 0924 FA3E4BE2 		sub	r3, fp, #4000
 3526 0928 0C3043E2 		sub	r3, r3, #12
 3527 092c 083043E2 		sub	r3, r3, #8
 3528 0930 10300BE5 		str	r3, [fp, #-16]
 556:../proyecto.c **** 
 557:../proyecto.c ****     while( (tp = getSyllableId( tp, &i )) ){		// Extrae una sílaba del texto y devuelve su identifi
 3529              		.loc 1 557 0
 3530 0934 090000EA 		b	.L68
 3531              	.L69:
 558:../proyecto.c **** 		iis_playwawFile( syllablesWavFile[i] );
 3532              		.loc 1 558 0
 3533 0938 11305BE5 		ldrb	r3, [fp, #-17]	@ zero_extendqisi2
 3534 093c 0320A0E1 		mov	r2, r3
 3535 0940 54309FE5 		ldr	r3, .L70
 3536 0944 023193E7 		ldr	r3, [r3, r2, asl #2]
 3537 0948 0300A0E1 		mov	r0, r3
 3538 094c FEFFFFEB 		bl	iis_playwawFile
 559:../proyecto.c **** 		led_toggle(LEFT_LED);
 3539              		.loc 1 559 0
 3540 0950 0100A0E3 		mov	r0, #1
 3541 0954 FEFFFFEB 		bl	led_toggle
 560:../proyecto.c **** 		led_toggle(RIGHT_LED);
 3542              		.loc 1 560 0
 3543 0958 0200A0E3 		mov	r0, #2
 3544 095c FEFFFFEB 		bl	led_toggle
 3545              	.L68:
 557:../proyecto.c ****     while( (tp = getSyllableId( tp, &i )) ){		// Extrae una sílaba del texto y devuelve su identifi
 3546              		.loc 1 557 0 discriminator 1
 3547 0960 11304BE2 		sub	r3, fp, #17
 3548 0964 10001BE5 		ldr	r0, [fp, #-16]
 3549 0968 0310A0E1 		mov	r1, r3
 3550 096c FD0300EB 		bl	getSyllableId
 3551 0970 10000BE5 		str	r0, [fp, #-16]
 3552 0974 10301BE5 		ldr	r3, [fp, #-16]
 3553 0978 000053E3 		cmp	r3, #0
 3554 097c EDFFFF1A 		bne	.L69
 561:../proyecto.c **** 	};		// Reproduce el correspondiente sonido
 562:../proyecto.c ****     led_off(LEFT_LED);
 3555              		.loc 1 562 0
 3556 0980 0100A0E3 		mov	r0, #1
 3557 0984 FEFFFFEB 		bl	led_off
 563:../proyecto.c ****     led_off(RIGHT_LED);
 3558              		.loc 1 563 0
 3559 0988 0200A0E3 		mov	r0, #2
 3560 098c FEFFFFEB 		bl	led_off
 564:../proyecto.c **** }
 3561              		.loc 1 564 0
 3562 0990 0CD04BE2 		sub	sp, fp, #12
 3563 0994 00689DE8 		ldmfd	sp, {fp, sp, lr}
 3564 0998 1EFF2FE1 		bx	lr
 3565              	.L71:
 3566              		.align	2
 3567              	.L70:
 3568 099c 00000000 		.word	syllablesWavFile
 3569              		.cfi_endproc
 3570              	.LFE10:
 3572              		.align	2
 3574              	esPuntuacion:
 3575              	.LFB11:
 565:../proyecto.c **** 
 566:../proyecto.c **** static boolean esPuntuacion(char ch){
 3576              		.loc 1 566 0
 3577              		.cfi_startproc
 3578              		@ Function supports interworking.
 3579              		@ args = 0, pretend = 0, frame = 8
 3580              		@ frame_needed = 1, uses_anonymous_args = 0
 3581 09a0 0DC0A0E1 		mov	ip, sp
 3582              	.LCFI22:
 3583              		.cfi_def_cfa_register 12
 3584 09a4 00D82DE9 		stmfd	sp!, {fp, ip, lr, pc}
 3585 09a8 04B04CE2 		sub	fp, ip, #4
 3586              		.cfi_offset 14, -8
 3587              		.cfi_offset 13, -12
 3588              		.cfi_offset 11, -16
 3589              	.LCFI23:
 3590              		.cfi_def_cfa 11, 4
 3591 09ac 08D04DE2 		sub	sp, sp, #8
 3592 09b0 0030A0E1 		mov	r3, r0
 3593 09b4 0D304BE5 		strb	r3, [fp, #-13]
 567:../proyecto.c **** 	switch (ch) {
 3594              		.loc 1 567 0
 3595 09b8 0D305BE5 		ldrb	r3, [fp, #-13]	@ zero_extendqisi2
 3596 09bc 203043E2 		sub	r3, r3, #32
 3597 09c0 0E0053E3 		cmp	r3, #14
 3598 09c4 0500008A 		bhi	.L73
 3599 09c8 24209FE5 		ldr	r2, .L76
 3600 09cc 1233A0E1 		mov	r3, r2, asl r3
 3601 09d0 000053E3 		cmp	r3, #0
 3602 09d4 010000AA 		bge	.L73
 3603              	.L74:
 568:../proyecto.c **** 	case ' ':
 569:../proyecto.c **** 	case ',':
 570:../proyecto.c **** 	case '.':
 571:../proyecto.c **** 		return TRUE;
 3604              		.loc 1 571 0
 3605 09d8 0130A0E3 		mov	r3, #1
 3606 09dc 000000EA 		b	.L75
 3607              	.L73:
 572:../proyecto.c **** 	default:
 573:../proyecto.c **** 		return FALSE;
 3608              		.loc 1 573 0
 3609 09e0 0030A0E3 		mov	r3, #0
 3610              	.L75:
 574:../proyecto.c **** 	}
 575:../proyecto.c **** }
 3611              		.loc 1 575 0
 3612 09e4 0300A0E1 		mov	r0, r3
 3613 09e8 0CD04BE2 		sub	sp, fp, #12
 3614 09ec 00689DE8 		ldmfd	sp, {fp, sp, lr}
 3615 09f0 1EFF2FE1 		bx	lr
 3616              	.L77:
 3617              		.align	2
 3618              	.L76:
 3619 09f4 00000A80 		.word	-2146828288
 3620              		.cfi_endproc
 3621              	.LFE11:
 3623              		.align	2
 3625              	esVocal:
 3626              	.LFB12:
 576:../proyecto.c **** 
 577:../proyecto.c **** static boolean esVocal(char ch){
 3627              		.loc 1 577 0
 3628              		.cfi_startproc
 3629              		@ Function supports interworking.
 3630              		@ args = 0, pretend = 0, frame = 8
 3631              		@ frame_needed = 1, uses_anonymous_args = 0
 3632 09f8 0DC0A0E1 		mov	ip, sp
 3633              	.LCFI24:
 3634              		.cfi_def_cfa_register 12
 3635 09fc 00D82DE9 		stmfd	sp!, {fp, ip, lr, pc}
 3636 0a00 04B04CE2 		sub	fp, ip, #4
 3637              		.cfi_offset 14, -8
 3638              		.cfi_offset 13, -12
 3639              		.cfi_offset 11, -16
 3640              	.LCFI25:
 3641              		.cfi_def_cfa 11, 4
 3642 0a04 08D04DE2 		sub	sp, sp, #8
 3643 0a08 0030A0E1 		mov	r3, r0
 3644 0a0c 0D304BE5 		strb	r3, [fp, #-13]
 578:../proyecto.c **** 	switch (ch) {
 3645              		.loc 1 578 0
 3646 0a10 0D305BE5 		ldrb	r3, [fp, #-13]	@ zero_extendqisi2
 3647 0a14 613043E2 		sub	r3, r3, #97
 3648 0a18 140053E3 		cmp	r3, #20
 3649 0a1c 0500008A 		bhi	.L79
 3650 0a20 24209FE5 		ldr	r2, .L82
 3651 0a24 1233A0E1 		mov	r3, r2, asl r3
 3652 0a28 000053E3 		cmp	r3, #0
 3653 0a2c 010000AA 		bge	.L79
 3654              	.L80:
 579:../proyecto.c **** 	case 'a':
 580:../proyecto.c **** 	case 'e':
 581:../proyecto.c **** 	case 'i':
 582:../proyecto.c **** 	case 'o':
 583:../proyecto.c **** 	case 'u':
 584:../proyecto.c **** 		return TRUE;
 3655              		.loc 1 584 0
 3656 0a30 0130A0E3 		mov	r3, #1
 3657 0a34 000000EA 		b	.L81
 3658              	.L79:
 585:../proyecto.c **** 	default:
 586:../proyecto.c **** 		return FALSE;
 3659              		.loc 1 586 0
 3660 0a38 0030A0E3 		mov	r3, #0
 3661              	.L81:
 587:../proyecto.c **** 	}
 588:../proyecto.c **** }
 3662              		.loc 1 588 0
 3663 0a3c 0300A0E1 		mov	r0, r3
 3664 0a40 0CD04BE2 		sub	sp, fp, #12
 3665 0a44 00689DE8 		ldmfd	sp, {fp, sp, lr}
 3666 0a48 1EFF2FE1 		bx	lr
 3667              	.L83:
 3668              		.align	2
 3669              	.L82:
 3670 0a4c 00088288 		.word	-2004744192
 3671              		.cfi_endproc
 3672              	.LFE12:
 3674              		.align	2
 3676              	esConsonante:
 3677              	.LFB13:
 589:../proyecto.c **** 
 590:../proyecto.c **** static boolean esConsonante(char ch){
 3678              		.loc 1 590 0
 3679              		.cfi_startproc
 3680              		@ Function supports interworking.
 3681              		@ args = 0, pretend = 0, frame = 8
 3682              		@ frame_needed = 1, uses_anonymous_args = 0
 3683 0a50 0DC0A0E1 		mov	ip, sp
 3684              	.LCFI26:
 3685              		.cfi_def_cfa_register 12
 3686 0a54 00D82DE9 		stmfd	sp!, {fp, ip, lr, pc}
 3687 0a58 04B04CE2 		sub	fp, ip, #4
 3688              		.cfi_offset 14, -8
 3689              		.cfi_offset 13, -12
 3690              		.cfi_offset 11, -16
 3691              	.LCFI27:
 3692              		.cfi_def_cfa 11, 4
 3693 0a5c 08D04DE2 		sub	sp, sp, #8
 3694 0a60 0030A0E1 		mov	r3, r0
 3695 0a64 0D304BE5 		strb	r3, [fp, #-13]
 591:../proyecto.c **** 	switch (ch) {
 3696              		.loc 1 591 0
 3697 0a68 0D305BE5 		ldrb	r3, [fp, #-13]	@ zero_extendqisi2
 3698 0a6c 483043E2 		sub	r3, r3, #72
 3699 0a70 320053E3 		cmp	r3, #50
 3700 0a74 03F19F97 		ldrls	pc, [pc, r3, asl #2]
 3701 0a78 340000EA 		b	.L85
 3702              	.L87:
 3703 0a7c 480B0000 		.word	.L86
 3704 0a80 500B0000 		.word	.L85
 3705 0a84 500B0000 		.word	.L85
 3706 0a88 500B0000 		.word	.L85
 3707 0a8c 500B0000 		.word	.L85
 3708 0a90 500B0000 		.word	.L85
 3709 0a94 480B0000 		.word	.L86
 3710 0a98 500B0000 		.word	.L85
 3711 0a9c 500B0000 		.word	.L85
 3712 0aa0 500B0000 		.word	.L85
 3713 0aa4 480B0000 		.word	.L86
 3714 0aa8 500B0000 		.word	.L85
 3715 0aac 500B0000 		.word	.L85
 3716 0ab0 500B0000 		.word	.L85
 3717 0ab4 500B0000 		.word	.L85
 3718 0ab8 500B0000 		.word	.L85
 3719 0abc 500B0000 		.word	.L85
 3720 0ac0 500B0000 		.word	.L85
 3721 0ac4 500B0000 		.word	.L85
 3722 0ac8 500B0000 		.word	.L85
 3723 0acc 500B0000 		.word	.L85
 3724 0ad0 500B0000 		.word	.L85
 3725 0ad4 500B0000 		.word	.L85
 3726 0ad8 500B0000 		.word	.L85
 3727 0adc 500B0000 		.word	.L85
 3728 0ae0 500B0000 		.word	.L85
 3729 0ae4 480B0000 		.word	.L86
 3730 0ae8 500B0000 		.word	.L85
 3731 0aec 480B0000 		.word	.L86
 3732 0af0 500B0000 		.word	.L85
 3733 0af4 480B0000 		.word	.L86
 3734 0af8 480B0000 		.word	.L86
 3735 0afc 500B0000 		.word	.L85
 3736 0b00 500B0000 		.word	.L85
 3737 0b04 480B0000 		.word	.L86
 3738 0b08 480B0000 		.word	.L86
 3739 0b0c 480B0000 		.word	.L86
 3740 0b10 480B0000 		.word	.L86
 3741 0b14 480B0000 		.word	.L86
 3742 0b18 500B0000 		.word	.L85
 3743 0b1c 480B0000 		.word	.L86
 3744 0b20 480B0000 		.word	.L86
 3745 0b24 480B0000 		.word	.L86
 3746 0b28 480B0000 		.word	.L86
 3747 0b2c 480B0000 		.word	.L86
 3748 0b30 500B0000 		.word	.L85
 3749 0b34 500B0000 		.word	.L85
 3750 0b38 500B0000 		.word	.L85
 3751 0b3c 480B0000 		.word	.L86
 3752 0b40 480B0000 		.word	.L86
 3753 0b44 480B0000 		.word	.L86
 3754              	.L86:
 592:../proyecto.c **** 	case 'b':
 593:../proyecto.c **** 	case 'd':
 594:../proyecto.c **** 	case 'f':
 595:../proyecto.c **** 	case 'g':
 596:../proyecto.c **** 	case 'j':
 597:../proyecto.c **** 	case 'k':
 598:../proyecto.c **** 	case 'l':
 599:../proyecto.c **** 	case 'm':
 600:../proyecto.c **** 	case 'n':
 601:../proyecto.c **** 	case 'N':
 602:../proyecto.c **** 	case 'p':
 603:../proyecto.c **** 	case 'q':
 604:../proyecto.c **** 	case 'r':
 605:../proyecto.c **** 	case 'R':
 606:../proyecto.c **** 	case 's':
 607:../proyecto.c **** 	case 't':
 608:../proyecto.c **** 	case 'x':
 609:../proyecto.c **** 	case 'y':
 610:../proyecto.c **** 	case 'z':
 611:../proyecto.c **** 	case 'H':
 612:../proyecto.c **** 		return TRUE;
 3755              		.loc 1 612 0
 3756 0b48 0130A0E3 		mov	r3, #1
 3757 0b4c 000000EA 		b	.L88
 3758              	.L85:
 613:../proyecto.c **** 	default:
 614:../proyecto.c **** 		return FALSE;
 3759              		.loc 1 614 0
 3760 0b50 0030A0E3 		mov	r3, #0
 3761              	.L88:
 615:../proyecto.c **** 	}
 616:../proyecto.c **** }
 3762              		.loc 1 616 0
 3763 0b54 0300A0E1 		mov	r0, r3
 3764 0b58 0CD04BE2 		sub	sp, fp, #12
 3765 0b5c 00689DE8 		ldmfd	sp, {fp, sp, lr}
 3766 0b60 1EFF2FE1 		bx	lr
 3767              		.cfi_endproc
 3768              	.LFE13:
 3770              		.align	2
 3772              	esBFGKP:
 3773              	.LFB14:
 617:../proyecto.c **** 
 618:../proyecto.c **** static boolean esBFGKP(char ch){
 3774              		.loc 1 618 0
 3775              		.cfi_startproc
 3776              		@ Function supports interworking.
 3777              		@ args = 0, pretend = 0, frame = 8
 3778              		@ frame_needed = 1, uses_anonymous_args = 0
 3779 0b64 0DC0A0E1 		mov	ip, sp
 3780              	.LCFI28:
 3781              		.cfi_def_cfa_register 12
 3782 0b68 00D82DE9 		stmfd	sp!, {fp, ip, lr, pc}
 3783 0b6c 04B04CE2 		sub	fp, ip, #4
 3784              		.cfi_offset 14, -8
 3785              		.cfi_offset 13, -12
 3786              		.cfi_offset 11, -16
 3787              	.LCFI29:
 3788              		.cfi_def_cfa 11, 4
 3789 0b70 08D04DE2 		sub	sp, sp, #8
 3790 0b74 0030A0E1 		mov	r3, r0
 3791 0b78 0D304BE5 		strb	r3, [fp, #-13]
 619:../proyecto.c **** 	switch (ch) {
 3792              		.loc 1 619 0
 3793 0b7c 0D305BE5 		ldrb	r3, [fp, #-13]	@ zero_extendqisi2
 3794 0b80 623043E2 		sub	r3, r3, #98
 3795 0b84 0E0053E3 		cmp	r3, #14
 3796 0b88 0500008A 		bhi	.L90
 3797 0b8c 24209FE5 		ldr	r2, .L93
 3798 0b90 1233A0E1 		mov	r3, r2, asl r3
 3799 0b94 000053E3 		cmp	r3, #0
 3800 0b98 010000AA 		bge	.L90
 3801              	.L91:
 620:../proyecto.c **** 	case 'b':
 621:../proyecto.c **** 	case 'f':
 622:../proyecto.c **** 	case 'g':
 623:../proyecto.c **** 	case 'k':
 624:../proyecto.c **** 	case 'p':
 625:../proyecto.c **** 		return TRUE;
 3802              		.loc 1 625 0
 3803 0b9c 0130A0E3 		mov	r3, #1
 3804 0ba0 000000EA 		b	.L92
 3805              	.L90:
 626:../proyecto.c **** 	default:
 627:../proyecto.c **** 		return FALSE;
 3806              		.loc 1 627 0
 3807 0ba4 0030A0E3 		mov	r3, #0
 3808              	.L92:
 628:../proyecto.c **** 	}
 629:../proyecto.c **** }
 3809              		.loc 1 629 0
 3810 0ba8 0300A0E1 		mov	r0, r3
 3811 0bac 0CD04BE2 		sub	sp, fp, #12
 3812 0bb0 00689DE8 		ldmfd	sp, {fp, sp, lr}
 3813 0bb4 1EFF2FE1 		bx	lr
 3814              	.L94:
 3815              		.align	2
 3816              	.L93:
 3817 0bb8 0000428C 		.word	-1941831680
 3818              		.cfi_endproc
 3819              	.LFE14:
 3821              		.align	2
 3823              	esBDFGKPT:
 3824              	.LFB15:
 630:../proyecto.c **** 
 631:../proyecto.c **** static boolean esBDFGKPT(char ch){
 3825              		.loc 1 631 0
 3826              		.cfi_startproc
 3827              		@ Function supports interworking.
 3828              		@ args = 0, pretend = 0, frame = 8
 3829              		@ frame_needed = 1, uses_anonymous_args = 0
 3830 0bbc 0DC0A0E1 		mov	ip, sp
 3831              	.LCFI30:
 3832              		.cfi_def_cfa_register 12
 3833 0bc0 00D82DE9 		stmfd	sp!, {fp, ip, lr, pc}
 3834 0bc4 04B04CE2 		sub	fp, ip, #4
 3835              		.cfi_offset 14, -8
 3836              		.cfi_offset 13, -12
 3837              		.cfi_offset 11, -16
 3838              	.LCFI31:
 3839              		.cfi_def_cfa 11, 4
 3840 0bc8 08D04DE2 		sub	sp, sp, #8
 3841 0bcc 0030A0E1 		mov	r3, r0
 3842 0bd0 0D304BE5 		strb	r3, [fp, #-13]
 632:../proyecto.c **** 	switch (ch) {
 3843              		.loc 1 632 0
 3844 0bd4 0D305BE5 		ldrb	r3, [fp, #-13]	@ zero_extendqisi2
 3845 0bd8 623043E2 		sub	r3, r3, #98
 3846 0bdc 120053E3 		cmp	r3, #18
 3847 0be0 0500008A 		bhi	.L96
 3848 0be4 24209FE5 		ldr	r2, .L99
 3849 0be8 1233A0E1 		mov	r3, r2, asl r3
 3850 0bec 000053E3 		cmp	r3, #0
 3851 0bf0 010000AA 		bge	.L96
 3852              	.L97:
 633:../proyecto.c **** 	case 'b':
 634:../proyecto.c **** 	case 'd':
 635:../proyecto.c **** 	case 'f':
 636:../proyecto.c **** 	case 'g':
 637:../proyecto.c **** 	case 'k':
 638:../proyecto.c **** 	case 'p':
 639:../proyecto.c **** 	case 't':
 640:../proyecto.c **** 		return TRUE;
 3853              		.loc 1 640 0
 3854 0bf4 0130A0E3 		mov	r3, #1
 3855 0bf8 000000EA 		b	.L98
 3856              	.L96:
 641:../proyecto.c **** 	default:
 642:../proyecto.c **** 		return FALSE;
 3857              		.loc 1 642 0
 3858 0bfc 0030A0E3 		mov	r3, #0
 3859              	.L98:
 643:../proyecto.c **** 	}
 644:../proyecto.c **** }
 3860              		.loc 1 644 0
 3861 0c00 0300A0E1 		mov	r0, r3
 3862 0c04 0CD04BE2 		sub	sp, fp, #12
 3863 0c08 00689DE8 		ldmfd	sp, {fp, sp, lr}
 3864 0c0c 1EFF2FE1 		bx	lr
 3865              	.L100:
 3866              		.align	2
 3867              	.L99:
 3868 0c10 002042AC 		.word	-1404952576
 3869              		.cfi_endproc
 3870              	.LFE15:
 3872              		.align	2
 3874              	faseBilitera:
 3875              	.LFB16:
 645:../proyecto.c **** 
 646:../proyecto.c **** 
 647:../proyecto.c **** static void faseBilitera(char *txtIn, char *txtOut){
 3876              		.loc 1 647 0
 3877              		.cfi_startproc
 3878              		@ Function supports interworking.
 3879              		@ args = 0, pretend = 0, frame = 8
 3880              		@ frame_needed = 1, uses_anonymous_args = 0
 3881 0c14 0DC0A0E1 		mov	ip, sp
 3882              	.LCFI32:
 3883              		.cfi_def_cfa_register 12
 3884 0c18 00D82DE9 		stmfd	sp!, {fp, ip, lr, pc}
 3885 0c1c 04B04CE2 		sub	fp, ip, #4
 3886              		.cfi_offset 14, -8
 3887              		.cfi_offset 13, -12
 3888              		.cfi_offset 11, -16
 3889              	.LCFI33:
 3890              		.cfi_def_cfa 11, 4
 3891 0c20 08D04DE2 		sub	sp, sp, #8
 3892 0c24 10000BE5 		str	r0, [fp, #-16]
 3893 0c28 14100BE5 		str	r1, [fp, #-20]
 648:../proyecto.c **** 	while (*txtIn)
 3894              		.loc 1 648 0
 3895 0c2c 240300EA 		b	.L102
 3896              	.L147:
 649:../proyecto.c **** 		switch (txtIn[0]) {
 3897              		.loc 1 649 0
 3898 0c30 10301BE5 		ldr	r3, [fp, #-16]
 3899 0c34 0030D3E5 		ldrb	r3, [r3, #0]	@ zero_extendqisi2
 3900 0c38 203043E2 		sub	r3, r3, #32
 3901 0c3c D10053E3 		cmp	r3, #209
 3902 0c40 03F19F97 		ldrls	pc, [pc, r3, asl #2]
 3903 0c44 140300EA 		b	.L103
 3904              	.L125:
 3905 0c48 B8170000 		.word	.L104
 3906 0c4c 9C180000 		.word	.L103
 3907 0c50 9C180000 		.word	.L103
 3908 0c54 9C180000 		.word	.L103
 3909 0c58 9C180000 		.word	.L103
 3910 0c5c 9C180000 		.word	.L103
 3911 0c60 9C180000 		.word	.L103
 3912 0c64 9C180000 		.word	.L103
 3913 0c68 9C180000 		.word	.L103
 3914 0c6c 9C180000 		.word	.L103
 3915 0c70 9C180000 		.word	.L103
 3916 0c74 9C180000 		.word	.L103
 3917 0c78 9C180000 		.word	.L103
 3918 0c7c 900F0000 		.word	.L105
 3919 0c80 9C180000 		.word	.L103
 3920 0c84 9C180000 		.word	.L103
 3921 0c88 A00F0000 		.word	.L106
 3922 0c8c 10100000 		.word	.L107
 3923 0c90 68100000 		.word	.L108
 3924 0c94 C0100000 		.word	.L109
 3925 0c98 30110000 		.word	.L110
 3926 0c9c D0110000 		.word	.L111
 3927 0ca0 58120000 		.word	.L112
 3928 0ca4 C8120000 		.word	.L113
 3929 0ca8 50130000 		.word	.L114
 3930 0cac A8130000 		.word	.L115
 3931 0cb0 9C180000 		.word	.L103
 3932 0cb4 9C180000 		.word	.L103
 3933 0cb8 9C180000 		.word	.L103
 3934 0cbc 9C180000 		.word	.L103
 3935 0cc0 9C180000 		.word	.L103
 3936 0cc4 9C180000 		.word	.L103
 3937 0cc8 9C180000 		.word	.L103
 3938 0ccc 9C180000 		.word	.L103
 3939 0cd0 9C180000 		.word	.L103
 3940 0cd4 9C180000 		.word	.L103
 3941 0cd8 9C180000 		.word	.L103
 3942 0cdc 9C180000 		.word	.L103
 3943 0ce0 9C180000 		.word	.L103
 3944 0ce4 9C180000 		.word	.L103
 3945 0ce8 9C180000 		.word	.L103
 3946 0cec 9C180000 		.word	.L103
 3947 0cf0 9C180000 		.word	.L103
 3948 0cf4 9C180000 		.word	.L103
 3949 0cf8 9C180000 		.word	.L103
 3950 0cfc 9C180000 		.word	.L103
 3951 0d00 9C180000 		.word	.L103
 3952 0d04 9C180000 		.word	.L103
 3953 0d08 9C180000 		.word	.L103
 3954 0d0c 9C180000 		.word	.L103
 3955 0d10 9C180000 		.word	.L103
 3956 0d14 9C180000 		.word	.L103
 3957 0d18 9C180000 		.word	.L103
 3958 0d1c 9C180000 		.word	.L103
 3959 0d20 9C180000 		.word	.L103
 3960 0d24 9C180000 		.word	.L103
 3961 0d28 9C180000 		.word	.L103
 3962 0d2c 9C180000 		.word	.L103
 3963 0d30 9C180000 		.word	.L103
 3964 0d34 9C180000 		.word	.L103
 3965 0d38 9C180000 		.word	.L103
 3966 0d3c 9C180000 		.word	.L103
 3967 0d40 9C180000 		.word	.L103
 3968 0d44 9C180000 		.word	.L103
 3969 0d48 9C180000 		.word	.L103
 3970 0d4c 9C180000 		.word	.L103
 3971 0d50 9C180000 		.word	.L103
 3972 0d54 30140000 		.word	.L116
 3973 0d58 9C180000 		.word	.L103
 3974 0d5c 9C180000 		.word	.L103
 3975 0d60 9C180000 		.word	.L103
 3976 0d64 20150000 		.word	.L117
 3977 0d68 18160000 		.word	.L118
 3978 0d6c 9C180000 		.word	.L103
 3979 0d70 9C180000 		.word	.L103
 3980 0d74 9C180000 		.word	.L103
 3981 0d78 28160000 		.word	.L119
 3982 0d7c 9C180000 		.word	.L103
 3983 0d80 9C180000 		.word	.L103
 3984 0d84 9C180000 		.word	.L103
 3985 0d88 9C180000 		.word	.L103
 3986 0d8c 8C160000 		.word	.L120
 3987 0d90 F0160000 		.word	.L121
 3988 0d94 9C180000 		.word	.L103
 3989 0d98 9C180000 		.word	.L103
 3990 0d9c 9C180000 		.word	.L103
 3991 0da0 9C180000 		.word	.L103
 3992 0da4 34180000 		.word	.L122
 3993 0da8 9C180000 		.word	.L103
 3994 0dac 54170000 		.word	.L123
 3995 0db0 9C180000 		.word	.L103
 3996 0db4 9C180000 		.word	.L103
 3997 0db8 9C180000 		.word	.L103
 3998 0dbc 9C180000 		.word	.L103
 3999 0dc0 9C180000 		.word	.L103
 4000 0dc4 9C180000 		.word	.L103
 4001 0dc8 9C180000 		.word	.L103
 4002 0dcc 9C180000 		.word	.L103
 4003 0dd0 9C180000 		.word	.L103
 4004 0dd4 9C180000 		.word	.L103
 4005 0dd8 9C180000 		.word	.L103
 4006 0ddc 9C180000 		.word	.L103
 4007 0de0 9C180000 		.word	.L103
 4008 0de4 9C180000 		.word	.L103
 4009 0de8 9C180000 		.word	.L103
 4010 0dec 9C180000 		.word	.L103
 4011 0df0 9C180000 		.word	.L103
 4012 0df4 9C180000 		.word	.L103
 4013 0df8 9C180000 		.word	.L103
 4014 0dfc 9C180000 		.word	.L103
 4015 0e00 9C180000 		.word	.L103
 4016 0e04 9C180000 		.word	.L103
 4017 0e08 9C180000 		.word	.L103
 4018 0e0c 9C180000 		.word	.L103
 4019 0e10 9C180000 		.word	.L103
 4020 0e14 9C180000 		.word	.L103
 4021 0e18 9C180000 		.word	.L103
 4022 0e1c 9C180000 		.word	.L103
 4023 0e20 9C180000 		.word	.L103
 4024 0e24 9C180000 		.word	.L103
 4025 0e28 9C180000 		.word	.L103
 4026 0e2c 9C180000 		.word	.L103
 4027 0e30 9C180000 		.word	.L103
 4028 0e34 9C180000 		.word	.L103
 4029 0e38 9C180000 		.word	.L103
 4030 0e3c 9C180000 		.word	.L103
 4031 0e40 9C180000 		.word	.L103
 4032 0e44 9C180000 		.word	.L103
 4033 0e48 9C180000 		.word	.L103
 4034 0e4c 9C180000 		.word	.L103
 4035 0e50 9C180000 		.word	.L103
 4036 0e54 9C180000 		.word	.L103
 4037 0e58 9C180000 		.word	.L103
 4038 0e5c 9C180000 		.word	.L103
 4039 0e60 9C180000 		.word	.L103
 4040 0e64 9C180000 		.word	.L103
 4041 0e68 9C180000 		.word	.L103
 4042 0e6c 9C180000 		.word	.L103
 4043 0e70 9C180000 		.word	.L103
 4044 0e74 9C180000 		.word	.L103
 4045 0e78 9C180000 		.word	.L103
 4046 0e7c 9C180000 		.word	.L103
 4047 0e80 9C180000 		.word	.L103
 4048 0e84 9C180000 		.word	.L103
 4049 0e88 9C180000 		.word	.L103
 4050 0e8c 9C180000 		.word	.L103
 4051 0e90 9C180000 		.word	.L103
 4052 0e94 9C180000 		.word	.L103
 4053 0e98 9C180000 		.word	.L103
 4054 0e9c 9C180000 		.word	.L103
 4055 0ea0 9C180000 		.word	.L103
 4056 0ea4 9C180000 		.word	.L103
 4057 0ea8 9C180000 		.word	.L103
 4058 0eac 9C180000 		.word	.L103
 4059 0eb0 9C180000 		.word	.L103
 4060 0eb4 9C180000 		.word	.L103
 4061 0eb8 9C180000 		.word	.L103
 4062 0ebc 9C180000 		.word	.L103
 4063 0ec0 9C180000 		.word	.L103
 4064 0ec4 9C180000 		.word	.L103
 4065 0ec8 9C180000 		.word	.L103
 4066 0ecc 9C180000 		.word	.L103
 4067 0ed0 9C180000 		.word	.L103
 4068 0ed4 9C180000 		.word	.L103
 4069 0ed8 9C180000 		.word	.L103
 4070 0edc 9C180000 		.word	.L103
 4071 0ee0 9C180000 		.word	.L103
 4072 0ee4 9C180000 		.word	.L103
 4073 0ee8 9C180000 		.word	.L103
 4074 0eec 9C180000 		.word	.L103
 4075 0ef0 9C180000 		.word	.L103
 4076 0ef4 9C180000 		.word	.L103
 4077 0ef8 9C180000 		.word	.L103
 4078 0efc 9C180000 		.word	.L103
 4079 0f00 9C180000 		.word	.L103
 4080 0f04 9C180000 		.word	.L103
 4081 0f08 9C180000 		.word	.L103
 4082 0f0c 9C180000 		.word	.L103
 4083 0f10 9C180000 		.word	.L103
 4084 0f14 9C180000 		.word	.L103
 4085 0f18 9C180000 		.word	.L103
 4086 0f1c 9C180000 		.word	.L103
 4087 0f20 9C180000 		.word	.L103
 4088 0f24 9C180000 		.word	.L103
 4089 0f28 9C180000 		.word	.L103
 4090 0f2c 9C180000 		.word	.L103
 4091 0f30 9C180000 		.word	.L103
 4092 0f34 9C180000 		.word	.L103
 4093 0f38 9C180000 		.word	.L103
 4094 0f3c 9C180000 		.word	.L103
 4095 0f40 9C180000 		.word	.L103
 4096 0f44 9C180000 		.word	.L103
 4097 0f48 9C180000 		.word	.L103
 4098 0f4c 9C180000 		.word	.L103
 4099 0f50 9C180000 		.word	.L103
 4100 0f54 9C180000 		.word	.L103
 4101 0f58 9C180000 		.word	.L103
 4102 0f5c 9C180000 		.word	.L103
 4103 0f60 9C180000 		.word	.L103
 4104 0f64 9C180000 		.word	.L103
 4105 0f68 9C180000 		.word	.L103
 4106 0f6c 9C180000 		.word	.L103
 4107 0f70 9C180000 		.word	.L103
 4108 0f74 9C180000 		.word	.L103
 4109 0f78 9C180000 		.word	.L103
 4110 0f7c 9C180000 		.word	.L103
 4111 0f80 9C180000 		.word	.L103
 4112 0f84 9C180000 		.word	.L103
 4113 0f88 9C180000 		.word	.L103
 4114 0f8c 74180000 		.word	.L124
 4115              	.L105:
 650:../proyecto.c **** 		case '-':
 651:../proyecto.c **** 			txtIn++;
 4116              		.loc 1 651 0
 4117 0f90 10301BE5 		ldr	r3, [fp, #-16]
 4118 0f94 013083E2 		add	r3, r3, #1
 4119 0f98 10300BE5 		str	r3, [fp, #-16]
 652:../proyecto.c **** 			break;
 4120              		.loc 1 652 0
 4121 0f9c 480200EA 		b	.L102
 4122              	.L106:
 653:../proyecto.c **** 		case '0':
 654:../proyecto.c **** 			*txtOut++ = 'z';
 4123              		.loc 1 654 0
 4124 0fa0 14301BE5 		ldr	r3, [fp, #-20]
 4125 0fa4 7A20A0E3 		mov	r2, #122
 4126 0fa8 0020C3E5 		strb	r2, [r3, #0]
 4127 0fac 14301BE5 		ldr	r3, [fp, #-20]
 4128 0fb0 013083E2 		add	r3, r3, #1
 4129 0fb4 14300BE5 		str	r3, [fp, #-20]
 655:../proyecto.c **** 			*txtOut++ = 'e';
 4130              		.loc 1 655 0
 4131 0fb8 14301BE5 		ldr	r3, [fp, #-20]
 4132 0fbc 6520A0E3 		mov	r2, #101
 4133 0fc0 0020C3E5 		strb	r2, [r3, #0]
 4134 0fc4 14301BE5 		ldr	r3, [fp, #-20]
 4135 0fc8 013083E2 		add	r3, r3, #1
 4136 0fcc 14300BE5 		str	r3, [fp, #-20]
 656:../proyecto.c **** 			*txtOut++ = 'r';
 4137              		.loc 1 656 0
 4138 0fd0 14301BE5 		ldr	r3, [fp, #-20]
 4139 0fd4 7220A0E3 		mov	r2, #114
 4140 0fd8 0020C3E5 		strb	r2, [r3, #0]
 4141 0fdc 14301BE5 		ldr	r3, [fp, #-20]
 4142 0fe0 013083E2 		add	r3, r3, #1
 4143 0fe4 14300BE5 		str	r3, [fp, #-20]
 657:../proyecto.c **** 			*txtOut++ = 'o';
 4144              		.loc 1 657 0
 4145 0fe8 14301BE5 		ldr	r3, [fp, #-20]
 4146 0fec 6F20A0E3 		mov	r2, #111
 4147 0ff0 0020C3E5 		strb	r2, [r3, #0]
 4148 0ff4 14301BE5 		ldr	r3, [fp, #-20]
 4149 0ff8 013083E2 		add	r3, r3, #1
 4150 0ffc 14300BE5 		str	r3, [fp, #-20]
 658:../proyecto.c **** 			txtIn++;
 4151              		.loc 1 658 0
 4152 1000 10301BE5 		ldr	r3, [fp, #-16]
 4153 1004 013083E2 		add	r3, r3, #1
 4154 1008 10300BE5 		str	r3, [fp, #-16]
 659:../proyecto.c **** 			break;
 4155              		.loc 1 659 0
 4156 100c 2C0200EA 		b	.L102
 4157              	.L107:
 660:../proyecto.c **** 		case '1':
 661:../proyecto.c **** 			*txtOut++ = 'u';
 4158              		.loc 1 661 0
 4159 1010 14301BE5 		ldr	r3, [fp, #-20]
 4160 1014 7520A0E3 		mov	r2, #117
 4161 1018 0020C3E5 		strb	r2, [r3, #0]
 4162 101c 14301BE5 		ldr	r3, [fp, #-20]
 4163 1020 013083E2 		add	r3, r3, #1
 4164 1024 14300BE5 		str	r3, [fp, #-20]
 662:../proyecto.c **** 			*txtOut++ = 'n';
 4165              		.loc 1 662 0
 4166 1028 14301BE5 		ldr	r3, [fp, #-20]
 4167 102c 6E20A0E3 		mov	r2, #110
 4168 1030 0020C3E5 		strb	r2, [r3, #0]
 4169 1034 14301BE5 		ldr	r3, [fp, #-20]
 4170 1038 013083E2 		add	r3, r3, #1
 4171 103c 14300BE5 		str	r3, [fp, #-20]
 663:../proyecto.c **** 			*txtOut++ = 'o';
 4172              		.loc 1 663 0
 4173 1040 14301BE5 		ldr	r3, [fp, #-20]
 4174 1044 6F20A0E3 		mov	r2, #111
 4175 1048 0020C3E5 		strb	r2, [r3, #0]
 4176 104c 14301BE5 		ldr	r3, [fp, #-20]
 4177 1050 013083E2 		add	r3, r3, #1
 4178 1054 14300BE5 		str	r3, [fp, #-20]
 664:../proyecto.c **** 			txtIn++;
 4179              		.loc 1 664 0
 4180 1058 10301BE5 		ldr	r3, [fp, #-16]
 4181 105c 013083E2 		add	r3, r3, #1
 4182 1060 10300BE5 		str	r3, [fp, #-16]
 665:../proyecto.c **** 			break;
 4183              		.loc 1 665 0
 4184 1064 160200EA 		b	.L102
 4185              	.L108:
 666:../proyecto.c **** 		case '2':
 667:../proyecto.c **** 			*txtOut++ = 'd';
 4186              		.loc 1 667 0
 4187 1068 14301BE5 		ldr	r3, [fp, #-20]
 4188 106c 6420A0E3 		mov	r2, #100
 4189 1070 0020C3E5 		strb	r2, [r3, #0]
 4190 1074 14301BE5 		ldr	r3, [fp, #-20]
 4191 1078 013083E2 		add	r3, r3, #1
 4192 107c 14300BE5 		str	r3, [fp, #-20]
 668:../proyecto.c **** 			*txtOut++ = 'o';
 4193              		.loc 1 668 0
 4194 1080 14301BE5 		ldr	r3, [fp, #-20]
 4195 1084 6F20A0E3 		mov	r2, #111
 4196 1088 0020C3E5 		strb	r2, [r3, #0]
 4197 108c 14301BE5 		ldr	r3, [fp, #-20]
 4198 1090 013083E2 		add	r3, r3, #1
 4199 1094 14300BE5 		str	r3, [fp, #-20]
 669:../proyecto.c **** 			*txtOut++ = 's';
 4200              		.loc 1 669 0
 4201 1098 14301BE5 		ldr	r3, [fp, #-20]
 4202 109c 7320A0E3 		mov	r2, #115
 4203 10a0 0020C3E5 		strb	r2, [r3, #0]
 4204 10a4 14301BE5 		ldr	r3, [fp, #-20]
 4205 10a8 013083E2 		add	r3, r3, #1
 4206 10ac 14300BE5 		str	r3, [fp, #-20]
 670:../proyecto.c **** 			txtIn++;
 4207              		.loc 1 670 0
 4208 10b0 10301BE5 		ldr	r3, [fp, #-16]
 4209 10b4 013083E2 		add	r3, r3, #1
 4210 10b8 10300BE5 		str	r3, [fp, #-16]
 671:../proyecto.c **** 			break;
 4211              		.loc 1 671 0
 4212 10bc 000200EA 		b	.L102
 4213              	.L109:
 672:../proyecto.c **** 		case '3':
 673:../proyecto.c **** 			*txtOut++ = 't';
 4214              		.loc 1 673 0
 4215 10c0 14301BE5 		ldr	r3, [fp, #-20]
 4216 10c4 7420A0E3 		mov	r2, #116
 4217 10c8 0020C3E5 		strb	r2, [r3, #0]
 4218 10cc 14301BE5 		ldr	r3, [fp, #-20]
 4219 10d0 013083E2 		add	r3, r3, #1
 4220 10d4 14300BE5 		str	r3, [fp, #-20]
 674:../proyecto.c **** 			*txtOut++ = 'r';
 4221              		.loc 1 674 0
 4222 10d8 14301BE5 		ldr	r3, [fp, #-20]
 4223 10dc 7220A0E3 		mov	r2, #114
 4224 10e0 0020C3E5 		strb	r2, [r3, #0]
 4225 10e4 14301BE5 		ldr	r3, [fp, #-20]
 4226 10e8 013083E2 		add	r3, r3, #1
 4227 10ec 14300BE5 		str	r3, [fp, #-20]
 675:../proyecto.c **** 			*txtOut++ = 'e';
 4228              		.loc 1 675 0
 4229 10f0 14301BE5 		ldr	r3, [fp, #-20]
 4230 10f4 6520A0E3 		mov	r2, #101
 4231 10f8 0020C3E5 		strb	r2, [r3, #0]
 4232 10fc 14301BE5 		ldr	r3, [fp, #-20]
 4233 1100 013083E2 		add	r3, r3, #1
 4234 1104 14300BE5 		str	r3, [fp, #-20]
 676:../proyecto.c **** 			*txtOut++ = 's';
 4235              		.loc 1 676 0
 4236 1108 14301BE5 		ldr	r3, [fp, #-20]
 4237 110c 7320A0E3 		mov	r2, #115
 4238 1110 0020C3E5 		strb	r2, [r3, #0]
 4239 1114 14301BE5 		ldr	r3, [fp, #-20]
 4240 1118 013083E2 		add	r3, r3, #1
 4241 111c 14300BE5 		str	r3, [fp, #-20]
 677:../proyecto.c **** 			txtIn++;
 4242              		.loc 1 677 0
 4243 1120 10301BE5 		ldr	r3, [fp, #-16]
 4244 1124 013083E2 		add	r3, r3, #1
 4245 1128 10300BE5 		str	r3, [fp, #-16]
 678:../proyecto.c **** 			break;
 4246              		.loc 1 678 0
 4247 112c E40100EA 		b	.L102
 4248              	.L110:
 679:../proyecto.c **** 		case '4':
 680:../proyecto.c **** 			*txtOut++ = 'k';
 4249              		.loc 1 680 0
 4250 1130 14301BE5 		ldr	r3, [fp, #-20]
 4251 1134 6B20A0E3 		mov	r2, #107
 4252 1138 0020C3E5 		strb	r2, [r3, #0]
 4253 113c 14301BE5 		ldr	r3, [fp, #-20]
 4254 1140 013083E2 		add	r3, r3, #1
 4255 1144 14300BE5 		str	r3, [fp, #-20]
 681:../proyecto.c **** 			*txtOut++ = 'u';
 4256              		.loc 1 681 0
 4257 1148 14301BE5 		ldr	r3, [fp, #-20]
 4258 114c 7520A0E3 		mov	r2, #117
 4259 1150 0020C3E5 		strb	r2, [r3, #0]
 4260 1154 14301BE5 		ldr	r3, [fp, #-20]
 4261 1158 013083E2 		add	r3, r3, #1
 4262 115c 14300BE5 		str	r3, [fp, #-20]
 682:../proyecto.c **** 			*txtOut++ = 'a';
 4263              		.loc 1 682 0
 4264 1160 14301BE5 		ldr	r3, [fp, #-20]
 4265 1164 6120A0E3 		mov	r2, #97
 4266 1168 0020C3E5 		strb	r2, [r3, #0]
 4267 116c 14301BE5 		ldr	r3, [fp, #-20]
 4268 1170 013083E2 		add	r3, r3, #1
 4269 1174 14300BE5 		str	r3, [fp, #-20]
 683:../proyecto.c **** 			*txtOut++ = 't';
 4270              		.loc 1 683 0
 4271 1178 14301BE5 		ldr	r3, [fp, #-20]
 4272 117c 7420A0E3 		mov	r2, #116
 4273 1180 0020C3E5 		strb	r2, [r3, #0]
 4274 1184 14301BE5 		ldr	r3, [fp, #-20]
 4275 1188 013083E2 		add	r3, r3, #1
 4276 118c 14300BE5 		str	r3, [fp, #-20]
 684:../proyecto.c **** 			*txtOut++ = 'r';
 4277              		.loc 1 684 0
 4278 1190 14301BE5 		ldr	r3, [fp, #-20]
 4279 1194 7220A0E3 		mov	r2, #114
 4280 1198 0020C3E5 		strb	r2, [r3, #0]
 4281 119c 14301BE5 		ldr	r3, [fp, #-20]
 4282 11a0 013083E2 		add	r3, r3, #1
 4283 11a4 14300BE5 		str	r3, [fp, #-20]
 685:../proyecto.c **** 			*txtOut++ = 'o';
 4284              		.loc 1 685 0
 4285 11a8 14301BE5 		ldr	r3, [fp, #-20]
 4286 11ac 6F20A0E3 		mov	r2, #111
 4287 11b0 0020C3E5 		strb	r2, [r3, #0]
 4288 11b4 14301BE5 		ldr	r3, [fp, #-20]
 4289 11b8 013083E2 		add	r3, r3, #1
 4290 11bc 14300BE5 		str	r3, [fp, #-20]
 686:../proyecto.c **** 			txtIn++;
 4291              		.loc 1 686 0
 4292 11c0 10301BE5 		ldr	r3, [fp, #-16]
 4293 11c4 013083E2 		add	r3, r3, #1
 4294 11c8 10300BE5 		str	r3, [fp, #-16]
 687:../proyecto.c **** 			break;
 4295              		.loc 1 687 0
 4296 11cc BC0100EA 		b	.L102
 4297              	.L111:
 688:../proyecto.c **** 		case '5':
 689:../proyecto.c **** 			*txtOut++ = 'z';
 4298              		.loc 1 689 0
 4299 11d0 14301BE5 		ldr	r3, [fp, #-20]
 4300 11d4 7A20A0E3 		mov	r2, #122
 4301 11d8 0020C3E5 		strb	r2, [r3, #0]
 4302 11dc 14301BE5 		ldr	r3, [fp, #-20]
 4303 11e0 013083E2 		add	r3, r3, #1
 4304 11e4 14300BE5 		str	r3, [fp, #-20]
 690:../proyecto.c **** 			*txtOut++ = 'i';
 4305              		.loc 1 690 0
 4306 11e8 14301BE5 		ldr	r3, [fp, #-20]
 4307 11ec 6920A0E3 		mov	r2, #105
 4308 11f0 0020C3E5 		strb	r2, [r3, #0]
 4309 11f4 14301BE5 		ldr	r3, [fp, #-20]
 4310 11f8 013083E2 		add	r3, r3, #1
 4311 11fc 14300BE5 		str	r3, [fp, #-20]
 691:../proyecto.c **** 			*txtOut++ = 'n';
 4312              		.loc 1 691 0
 4313 1200 14301BE5 		ldr	r3, [fp, #-20]
 4314 1204 6E20A0E3 		mov	r2, #110
 4315 1208 0020C3E5 		strb	r2, [r3, #0]
 4316 120c 14301BE5 		ldr	r3, [fp, #-20]
 4317 1210 013083E2 		add	r3, r3, #1
 4318 1214 14300BE5 		str	r3, [fp, #-20]
 692:../proyecto.c **** 			*txtOut++ = 'k';
 4319              		.loc 1 692 0
 4320 1218 14301BE5 		ldr	r3, [fp, #-20]
 4321 121c 6B20A0E3 		mov	r2, #107
 4322 1220 0020C3E5 		strb	r2, [r3, #0]
 4323 1224 14301BE5 		ldr	r3, [fp, #-20]
 4324 1228 013083E2 		add	r3, r3, #1
 4325 122c 14300BE5 		str	r3, [fp, #-20]
 693:../proyecto.c **** 			*txtOut++ = 'o';
 4326              		.loc 1 693 0
 4327 1230 14301BE5 		ldr	r3, [fp, #-20]
 4328 1234 6F20A0E3 		mov	r2, #111
 4329 1238 0020C3E5 		strb	r2, [r3, #0]
 4330 123c 14301BE5 		ldr	r3, [fp, #-20]
 4331 1240 013083E2 		add	r3, r3, #1
 4332 1244 14300BE5 		str	r3, [fp, #-20]
 694:../proyecto.c **** 			txtIn++;
 4333              		.loc 1 694 0
 4334 1248 10301BE5 		ldr	r3, [fp, #-16]
 4335 124c 013083E2 		add	r3, r3, #1
 4336 1250 10300BE5 		str	r3, [fp, #-16]
 695:../proyecto.c **** 			break;
 4337              		.loc 1 695 0
 4338 1254 9A0100EA 		b	.L102
 4339              	.L112:
 696:../proyecto.c **** 		case '6':
 697:../proyecto.c **** 			*txtOut++ = 's';
 4340              		.loc 1 697 0
 4341 1258 14301BE5 		ldr	r3, [fp, #-20]
 4342 125c 7320A0E3 		mov	r2, #115
 4343 1260 0020C3E5 		strb	r2, [r3, #0]
 4344 1264 14301BE5 		ldr	r3, [fp, #-20]
 4345 1268 013083E2 		add	r3, r3, #1
 4346 126c 14300BE5 		str	r3, [fp, #-20]
 698:../proyecto.c **** 			*txtOut++ = 'e';
 4347              		.loc 1 698 0
 4348 1270 14301BE5 		ldr	r3, [fp, #-20]
 4349 1274 6520A0E3 		mov	r2, #101
 4350 1278 0020C3E5 		strb	r2, [r3, #0]
 4351 127c 14301BE5 		ldr	r3, [fp, #-20]
 4352 1280 013083E2 		add	r3, r3, #1
 4353 1284 14300BE5 		str	r3, [fp, #-20]
 699:../proyecto.c **** 			*txtOut++ = 'i';
 4354              		.loc 1 699 0
 4355 1288 14301BE5 		ldr	r3, [fp, #-20]
 4356 128c 6920A0E3 		mov	r2, #105
 4357 1290 0020C3E5 		strb	r2, [r3, #0]
 4358 1294 14301BE5 		ldr	r3, [fp, #-20]
 4359 1298 013083E2 		add	r3, r3, #1
 4360 129c 14300BE5 		str	r3, [fp, #-20]
 700:../proyecto.c **** 			*txtOut++ = 's';
 4361              		.loc 1 700 0
 4362 12a0 14301BE5 		ldr	r3, [fp, #-20]
 4363 12a4 7320A0E3 		mov	r2, #115
 4364 12a8 0020C3E5 		strb	r2, [r3, #0]
 4365 12ac 14301BE5 		ldr	r3, [fp, #-20]
 4366 12b0 013083E2 		add	r3, r3, #1
 4367 12b4 14300BE5 		str	r3, [fp, #-20]
 701:../proyecto.c **** 			txtIn++;
 4368              		.loc 1 701 0
 4369 12b8 10301BE5 		ldr	r3, [fp, #-16]
 4370 12bc 013083E2 		add	r3, r3, #1
 4371 12c0 10300BE5 		str	r3, [fp, #-16]
 702:../proyecto.c **** 			break;
 4372              		.loc 1 702 0
 4373 12c4 7E0100EA 		b	.L102
 4374              	.L113:
 703:../proyecto.c **** 		case '7':
 704:../proyecto.c **** 			*txtOut++ = 's';
 4375              		.loc 1 704 0
 4376 12c8 14301BE5 		ldr	r3, [fp, #-20]
 4377 12cc 7320A0E3 		mov	r2, #115
 4378 12d0 0020C3E5 		strb	r2, [r3, #0]
 4379 12d4 14301BE5 		ldr	r3, [fp, #-20]
 4380 12d8 013083E2 		add	r3, r3, #1
 4381 12dc 14300BE5 		str	r3, [fp, #-20]
 705:../proyecto.c **** 			*txtOut++ = 'i';
 4382              		.loc 1 705 0
 4383 12e0 14301BE5 		ldr	r3, [fp, #-20]
 4384 12e4 6920A0E3 		mov	r2, #105
 4385 12e8 0020C3E5 		strb	r2, [r3, #0]
 4386 12ec 14301BE5 		ldr	r3, [fp, #-20]
 4387 12f0 013083E2 		add	r3, r3, #1
 4388 12f4 14300BE5 		str	r3, [fp, #-20]
 706:../proyecto.c **** 			*txtOut++ = 'e';
 4389              		.loc 1 706 0
 4390 12f8 14301BE5 		ldr	r3, [fp, #-20]
 4391 12fc 6520A0E3 		mov	r2, #101
 4392 1300 0020C3E5 		strb	r2, [r3, #0]
 4393 1304 14301BE5 		ldr	r3, [fp, #-20]
 4394 1308 013083E2 		add	r3, r3, #1
 4395 130c 14300BE5 		str	r3, [fp, #-20]
 707:../proyecto.c **** 			*txtOut++ = 't';
 4396              		.loc 1 707 0
 4397 1310 14301BE5 		ldr	r3, [fp, #-20]
 4398 1314 7420A0E3 		mov	r2, #116
 4399 1318 0020C3E5 		strb	r2, [r3, #0]
 4400 131c 14301BE5 		ldr	r3, [fp, #-20]
 4401 1320 013083E2 		add	r3, r3, #1
 4402 1324 14300BE5 		str	r3, [fp, #-20]
 708:../proyecto.c **** 			*txtOut++ = 'e';
 4403              		.loc 1 708 0
 4404 1328 14301BE5 		ldr	r3, [fp, #-20]
 4405 132c 6520A0E3 		mov	r2, #101
 4406 1330 0020C3E5 		strb	r2, [r3, #0]
 4407 1334 14301BE5 		ldr	r3, [fp, #-20]
 4408 1338 013083E2 		add	r3, r3, #1
 4409 133c 14300BE5 		str	r3, [fp, #-20]
 709:../proyecto.c **** 			txtIn++;
 4410              		.loc 1 709 0
 4411 1340 10301BE5 		ldr	r3, [fp, #-16]
 4412 1344 013083E2 		add	r3, r3, #1
 4413 1348 10300BE5 		str	r3, [fp, #-16]
 710:../proyecto.c **** 			break;
 4414              		.loc 1 710 0
 4415 134c 5C0100EA 		b	.L102
 4416              	.L114:
 711:../proyecto.c **** 		case '8':
 712:../proyecto.c **** 			*txtOut++ = 'o';
 4417              		.loc 1 712 0
 4418 1350 14301BE5 		ldr	r3, [fp, #-20]
 4419 1354 6F20A0E3 		mov	r2, #111
 4420 1358 0020C3E5 		strb	r2, [r3, #0]
 4421 135c 14301BE5 		ldr	r3, [fp, #-20]
 4422 1360 013083E2 		add	r3, r3, #1
 4423 1364 14300BE5 		str	r3, [fp, #-20]
 713:../proyecto.c **** 			*txtOut++ = 'H';
 4424              		.loc 1 713 0
 4425 1368 14301BE5 		ldr	r3, [fp, #-20]
 4426 136c 4820A0E3 		mov	r2, #72
 4427 1370 0020C3E5 		strb	r2, [r3, #0]
 4428 1374 14301BE5 		ldr	r3, [fp, #-20]
 4429 1378 013083E2 		add	r3, r3, #1
 4430 137c 14300BE5 		str	r3, [fp, #-20]
 714:../proyecto.c **** 			*txtOut++ = 'o';
 4431              		.loc 1 714 0
 4432 1380 14301BE5 		ldr	r3, [fp, #-20]
 4433 1384 6F20A0E3 		mov	r2, #111
 4434 1388 0020C3E5 		strb	r2, [r3, #0]
 4435 138c 14301BE5 		ldr	r3, [fp, #-20]
 4436 1390 013083E2 		add	r3, r3, #1
 4437 1394 14300BE5 		str	r3, [fp, #-20]
 715:../proyecto.c **** 			txtIn++;
 4438              		.loc 1 715 0
 4439 1398 10301BE5 		ldr	r3, [fp, #-16]
 4440 139c 013083E2 		add	r3, r3, #1
 4441 13a0 10300BE5 		str	r3, [fp, #-16]
 716:../proyecto.c **** 			break;
 4442              		.loc 1 716 0
 4443 13a4 460100EA 		b	.L102
 4444              	.L115:
 717:../proyecto.c **** 		case '9':
 718:../proyecto.c **** 			*txtOut++ = 'n';
 4445              		.loc 1 718 0
 4446 13a8 14301BE5 		ldr	r3, [fp, #-20]
 4447 13ac 6E20A0E3 		mov	r2, #110
 4448 13b0 0020C3E5 		strb	r2, [r3, #0]
 4449 13b4 14301BE5 		ldr	r3, [fp, #-20]
 4450 13b8 013083E2 		add	r3, r3, #1
 4451 13bc 14300BE5 		str	r3, [fp, #-20]
 719:../proyecto.c **** 			*txtOut++ = 'u';
 4452              		.loc 1 719 0
 4453 13c0 14301BE5 		ldr	r3, [fp, #-20]
 4454 13c4 7520A0E3 		mov	r2, #117
 4455 13c8 0020C3E5 		strb	r2, [r3, #0]
 4456 13cc 14301BE5 		ldr	r3, [fp, #-20]
 4457 13d0 013083E2 		add	r3, r3, #1
 4458 13d4 14300BE5 		str	r3, [fp, #-20]
 720:../proyecto.c **** 			*txtOut++ = 'e';
 4459              		.loc 1 720 0
 4460 13d8 14301BE5 		ldr	r3, [fp, #-20]
 4461 13dc 6520A0E3 		mov	r2, #101
 4462 13e0 0020C3E5 		strb	r2, [r3, #0]
 4463 13e4 14301BE5 		ldr	r3, [fp, #-20]
 4464 13e8 013083E2 		add	r3, r3, #1
 4465 13ec 14300BE5 		str	r3, [fp, #-20]
 721:../proyecto.c **** 			*txtOut++ = 'b';
 4466              		.loc 1 721 0
 4467 13f0 14301BE5 		ldr	r3, [fp, #-20]
 4468 13f4 6220A0E3 		mov	r2, #98
 4469 13f8 0020C3E5 		strb	r2, [r3, #0]
 4470 13fc 14301BE5 		ldr	r3, [fp, #-20]
 4471 1400 013083E2 		add	r3, r3, #1
 4472 1404 14300BE5 		str	r3, [fp, #-20]
 722:../proyecto.c **** 			*txtOut++ = 'e';
 4473              		.loc 1 722 0
 4474 1408 14301BE5 		ldr	r3, [fp, #-20]
 4475 140c 6520A0E3 		mov	r2, #101
 4476 1410 0020C3E5 		strb	r2, [r3, #0]
 4477 1414 14301BE5 		ldr	r3, [fp, #-20]
 4478 1418 013083E2 		add	r3, r3, #1
 4479 141c 14300BE5 		str	r3, [fp, #-20]
 723:../proyecto.c **** 			txtIn++;
 4480              		.loc 1 723 0
 4481 1420 10301BE5 		ldr	r3, [fp, #-16]
 4482 1424 013083E2 		add	r3, r3, #1
 4483 1428 10300BE5 		str	r3, [fp, #-16]
 724:../proyecto.c **** 			break;
 4484              		.loc 1 724 0
 4485 142c 240100EA 		b	.L102
 4486              	.L116:
 725:../proyecto.c **** 		case 'c':
 726:../proyecto.c **** 			switch (txtIn[1]) {
 4487              		.loc 1 726 0
 4488 1430 10301BE5 		ldr	r3, [fp, #-16]
 4489 1434 013083E2 		add	r3, r3, #1
 4490 1438 0030D3E5 		ldrb	r3, [r3, #0]	@ zero_extendqisi2
 4491 143c 613043E2 		sub	r3, r3, #97
 4492 1440 140053E3 		cmp	r3, #20
 4493 1444 2A00008A 		bhi	.L126
 4494 1448 9C249FE5 		ldr	r2, .L148
 4495 144c 1223A0E1 		mov	r2, r2, asl r3
 4496 1450 000052E3 		cmp	r2, #0
 4497 1454 080000BA 		blt	.L127
 4498 1458 2225A0E3 		mov	r2, #142606336
 4499 145c 1223A0E1 		mov	r2, r2, asl r3
 4500 1460 000052E3 		cmp	r2, #0
 4501 1464 0E0000BA 		blt	.L128
 4502 1468 0124A0E3 		mov	r2, #16777216
 4503 146c 1233A0E1 		mov	r3, r2, asl r3
 4504 1470 000053E3 		cmp	r3, #0
 4505 1474 1E0000AA 		bge	.L126
 4506 1478 130000EA 		b	.L129
 4507              	.L127:
 727:../proyecto.c **** 			case 'a':
 728:../proyecto.c **** 			case 'o':
 729:../proyecto.c **** 			case 'u':
 730:../proyecto.c **** 				*txtOut++ = 'k';
 4508              		.loc 1 730 0
 4509 147c 14301BE5 		ldr	r3, [fp, #-20]
 4510 1480 6B20A0E3 		mov	r2, #107
 4511 1484 0020C3E5 		strb	r2, [r3, #0]
 4512 1488 14301BE5 		ldr	r3, [fp, #-20]
 4513 148c 013083E2 		add	r3, r3, #1
 4514 1490 14300BE5 		str	r3, [fp, #-20]
 731:../proyecto.c **** 				txtIn++;
 4515              		.loc 1 731 0
 4516 1494 10301BE5 		ldr	r3, [fp, #-16]
 4517 1498 013083E2 		add	r3, r3, #1
 4518 149c 10300BE5 		str	r3, [fp, #-16]
 732:../proyecto.c **** 				break;
 4519              		.loc 1 732 0
 4520 14a0 1D0000EA 		b	.L130
 4521              	.L128:
 733:../proyecto.c **** 			case 'e':
 734:../proyecto.c **** 			case 'i':
 735:../proyecto.c **** 				*txtOut++ = 'z';
 4522              		.loc 1 735 0
 4523 14a4 14301BE5 		ldr	r3, [fp, #-20]
 4524 14a8 7A20A0E3 		mov	r2, #122
 4525 14ac 0020C3E5 		strb	r2, [r3, #0]
 4526 14b0 14301BE5 		ldr	r3, [fp, #-20]
 4527 14b4 013083E2 		add	r3, r3, #1
 4528 14b8 14300BE5 		str	r3, [fp, #-20]
 736:../proyecto.c **** 				txtIn++;
 4529              		.loc 1 736 0
 4530 14bc 10301BE5 		ldr	r3, [fp, #-16]
 4531 14c0 013083E2 		add	r3, r3, #1
 4532 14c4 10300BE5 		str	r3, [fp, #-16]
 737:../proyecto.c **** 				break;
 4533              		.loc 1 737 0
 4534 14c8 130000EA 		b	.L130
 4535              	.L129:
 738:../proyecto.c **** 			case 'h':
 739:../proyecto.c **** 				*txtOut++ = 'H';
 4536              		.loc 1 739 0
 4537 14cc 14301BE5 		ldr	r3, [fp, #-20]
 4538 14d0 4820A0E3 		mov	r2, #72
 4539 14d4 0020C3E5 		strb	r2, [r3, #0]
 4540 14d8 14301BE5 		ldr	r3, [fp, #-20]
 4541 14dc 013083E2 		add	r3, r3, #1
 4542 14e0 14300BE5 		str	r3, [fp, #-20]
 740:../proyecto.c **** 				txtIn += 2;
 4543              		.loc 1 740 0
 4544 14e4 10301BE5 		ldr	r3, [fp, #-16]
 4545 14e8 023083E2 		add	r3, r3, #2
 4546 14ec 10300BE5 		str	r3, [fp, #-16]
 741:../proyecto.c **** 				break;
 4547              		.loc 1 741 0
 4548 14f0 090000EA 		b	.L130
 4549              	.L126:
 742:../proyecto.c **** 			default:						// cr, cl
 743:../proyecto.c **** 				*txtOut++ = 'k';
 4550              		.loc 1 743 0
 4551 14f4 14301BE5 		ldr	r3, [fp, #-20]
 4552 14f8 6B20A0E3 		mov	r2, #107
 4553 14fc 0020C3E5 		strb	r2, [r3, #0]
 4554 1500 14301BE5 		ldr	r3, [fp, #-20]
 4555 1504 013083E2 		add	r3, r3, #1
 4556 1508 14300BE5 		str	r3, [fp, #-20]
 744:../proyecto.c **** 				txtIn++;
 4557              		.loc 1 744 0
 4558 150c 10301BE5 		ldr	r3, [fp, #-16]
 4559 1510 013083E2 		add	r3, r3, #1
 4560 1514 10300BE5 		str	r3, [fp, #-16]
 745:../proyecto.c **** 			}
 746:../proyecto.c **** 			break;
 4561              		.loc 1 746 0
 4562 1518 E90000EA 		b	.L102
 4563              	.L130:
 4564 151c E80000EA 		b	.L102
 4565              	.L117:
 747:../proyecto.c **** 
 748:../proyecto.c **** 
 749:../proyecto.c **** 		case 'g':
 750:../proyecto.c **** 			switch (txtIn[1]) {
 4566              		.loc 1 750 0
 4567 1520 10301BE5 		ldr	r3, [fp, #-16]
 4568 1524 013083E2 		add	r3, r3, #1
 4569 1528 0030D3E5 		ldrb	r3, [r3, #0]	@ zero_extendqisi2
 4570 152c 690053E3 		cmp	r3, #105
 4571 1530 1300000A 		beq	.L132
 4572 1534 690053E3 		cmp	r3, #105
 4573 1538 020000CA 		bgt	.L135
 4574 153c 650053E3 		cmp	r3, #101
 4575 1540 0F00000A 		beq	.L132
 4576 1544 280000EA 		b	.L131
 4577              	.L135:
 4578 1548 750053E3 		cmp	r3, #117
 4579 154c 0200000A 		beq	.L133
 4580 1550 FC0053E3 		cmp	r3, #252
 4581 1554 1400000A 		beq	.L134
 4582 1558 230000EA 		b	.L131
 4583              	.L133:
 751:../proyecto.c **** 			case 'u':
 752:../proyecto.c **** 				*txtOut++ = 'g';
 4584              		.loc 1 752 0
 4585 155c 14301BE5 		ldr	r3, [fp, #-20]
 4586 1560 6720A0E3 		mov	r2, #103
 4587 1564 0020C3E5 		strb	r2, [r3, #0]
 4588 1568 14301BE5 		ldr	r3, [fp, #-20]
 4589 156c 013083E2 		add	r3, r3, #1
 4590 1570 14300BE5 		str	r3, [fp, #-20]
 753:../proyecto.c **** 				txtIn ++;
 4591              		.loc 1 753 0
 4592 1574 10301BE5 		ldr	r3, [fp, #-16]
 4593 1578 013083E2 		add	r3, r3, #1
 4594 157c 10300BE5 		str	r3, [fp, #-16]
 754:../proyecto.c **** 				break;
 4595              		.loc 1 754 0
 4596 1580 230000EA 		b	.L136
 4597              	.L132:
 755:../proyecto.c **** 			case 'e':
 756:../proyecto.c **** 			case 'i':
 757:../proyecto.c **** 				*txtOut++ = 'j';
 4598              		.loc 1 757 0
 4599 1584 14301BE5 		ldr	r3, [fp, #-20]
 4600 1588 6A20A0E3 		mov	r2, #106
 4601 158c 0020C3E5 		strb	r2, [r3, #0]
 4602 1590 14301BE5 		ldr	r3, [fp, #-20]
 4603 1594 013083E2 		add	r3, r3, #1
 4604 1598 14300BE5 		str	r3, [fp, #-20]
 758:../proyecto.c **** 				txtIn++;
 4605              		.loc 1 758 0
 4606 159c 10301BE5 		ldr	r3, [fp, #-16]
 4607 15a0 013083E2 		add	r3, r3, #1
 4608 15a4 10300BE5 		str	r3, [fp, #-16]
 759:../proyecto.c **** 				break;
 4609              		.loc 1 759 0
 4610 15a8 190000EA 		b	.L136
 4611              	.L134:
 760:../proyecto.c **** 			case 'ü':
 761:../proyecto.c **** 				*txtOut++ = 'g';
 4612              		.loc 1 761 0
 4613 15ac 14301BE5 		ldr	r3, [fp, #-20]
 4614 15b0 6720A0E3 		mov	r2, #103
 4615 15b4 0020C3E5 		strb	r2, [r3, #0]
 4616 15b8 14301BE5 		ldr	r3, [fp, #-20]
 4617 15bc 013083E2 		add	r3, r3, #1
 4618 15c0 14300BE5 		str	r3, [fp, #-20]
 762:../proyecto.c **** 				*txtOut++ = 'u';
 4619              		.loc 1 762 0
 4620 15c4 14301BE5 		ldr	r3, [fp, #-20]
 4621 15c8 7520A0E3 		mov	r2, #117
 4622 15cc 0020C3E5 		strb	r2, [r3, #0]
 4623 15d0 14301BE5 		ldr	r3, [fp, #-20]
 4624 15d4 013083E2 		add	r3, r3, #1
 4625 15d8 14300BE5 		str	r3, [fp, #-20]
 763:../proyecto.c **** 				txtIn += 2;
 4626              		.loc 1 763 0
 4627 15dc 10301BE5 		ldr	r3, [fp, #-16]
 4628 15e0 023083E2 		add	r3, r3, #2
 4629 15e4 10300BE5 		str	r3, [fp, #-16]
 764:../proyecto.c **** 				break;
 4630              		.loc 1 764 0
 4631 15e8 090000EA 		b	.L136
 4632              	.L131:
 765:../proyecto.c **** 			default:						// cr, cl
 766:../proyecto.c **** 				*txtOut++ = 'g';
 4633              		.loc 1 766 0
 4634 15ec 14301BE5 		ldr	r3, [fp, #-20]
 4635 15f0 6720A0E3 		mov	r2, #103
 4636 15f4 0020C3E5 		strb	r2, [r3, #0]
 4637 15f8 14301BE5 		ldr	r3, [fp, #-20]
 4638 15fc 013083E2 		add	r3, r3, #1
 4639 1600 14300BE5 		str	r3, [fp, #-20]
 767:../proyecto.c **** 				txtIn++;
 4640              		.loc 1 767 0
 4641 1604 10301BE5 		ldr	r3, [fp, #-16]
 4642 1608 013083E2 		add	r3, r3, #1
 4643 160c 10300BE5 		str	r3, [fp, #-16]
 768:../proyecto.c **** 			}
 769:../proyecto.c **** 			break;
 4644              		.loc 1 769 0
 4645 1610 AB0000EA 		b	.L102
 4646              	.L136:
 4647 1614 AA0000EA 		b	.L102
 4648              	.L118:
 770:../proyecto.c **** 
 771:../proyecto.c **** 
 772:../proyecto.c **** 		case 'h':
 773:../proyecto.c **** 			txtIn++;
 4649              		.loc 1 773 0
 4650 1618 10301BE5 		ldr	r3, [fp, #-16]
 4651 161c 013083E2 		add	r3, r3, #1
 4652 1620 10300BE5 		str	r3, [fp, #-16]
 774:../proyecto.c **** 			break;
 4653              		.loc 1 774 0
 4654 1624 A60000EA 		b	.L102
 4655              	.L119:
 775:../proyecto.c **** 
 776:../proyecto.c **** 
 777:../proyecto.c **** 		case 'l':
 778:../proyecto.c **** 			if (txtIn[1] == 'l'){
 4656              		.loc 1 778 0
 4657 1628 10301BE5 		ldr	r3, [fp, #-16]
 4658 162c 013083E2 		add	r3, r3, #1
 4659 1630 0030D3E5 		ldrb	r3, [r3, #0]	@ zero_extendqisi2
 4660 1634 6C0053E3 		cmp	r3, #108
 4661 1638 0900001A 		bne	.L137
 779:../proyecto.c **** 				*txtOut++ = 'y';
 4662              		.loc 1 779 0
 4663 163c 14301BE5 		ldr	r3, [fp, #-20]
 4664 1640 7920A0E3 		mov	r2, #121
 4665 1644 0020C3E5 		strb	r2, [r3, #0]
 4666 1648 14301BE5 		ldr	r3, [fp, #-20]
 4667 164c 013083E2 		add	r3, r3, #1
 4668 1650 14300BE5 		str	r3, [fp, #-20]
 780:../proyecto.c **** 				txtIn += 2;
 4669              		.loc 1 780 0
 4670 1654 10301BE5 		ldr	r3, [fp, #-16]
 4671 1658 023083E2 		add	r3, r3, #2
 4672 165c 10300BE5 		str	r3, [fp, #-16]
 781:../proyecto.c **** 			}
 782:../proyecto.c **** 			else{
 783:../proyecto.c **** 				*txtOut++ = 'l';
 784:../proyecto.c **** 				txtIn++;
 785:../proyecto.c **** 			}
 786:../proyecto.c **** 			break;
 4673              		.loc 1 786 0
 4674 1660 970000EA 		b	.L102
 4675              	.L137:
 783:../proyecto.c **** 				*txtOut++ = 'l';
 4676              		.loc 1 783 0
 4677 1664 14301BE5 		ldr	r3, [fp, #-20]
 4678 1668 6C20A0E3 		mov	r2, #108
 4679 166c 0020C3E5 		strb	r2, [r3, #0]
 4680 1670 14301BE5 		ldr	r3, [fp, #-20]
 4681 1674 013083E2 		add	r3, r3, #1
 4682 1678 14300BE5 		str	r3, [fp, #-20]
 784:../proyecto.c **** 				txtIn++;
 4683              		.loc 1 784 0
 4684 167c 10301BE5 		ldr	r3, [fp, #-16]
 4685 1680 013083E2 		add	r3, r3, #1
 4686 1684 10300BE5 		str	r3, [fp, #-16]
 4687              		.loc 1 786 0
 4688 1688 8D0000EA 		b	.L102
 4689              	.L120:
 787:../proyecto.c **** 
 788:../proyecto.c **** 
 789:../proyecto.c **** 		case 'q':
 790:../proyecto.c **** 			if (txtIn[1] == 'u'){
 4690              		.loc 1 790 0
 4691 168c 10301BE5 		ldr	r3, [fp, #-16]
 4692 1690 013083E2 		add	r3, r3, #1
 4693 1694 0030D3E5 		ldrb	r3, [r3, #0]	@ zero_extendqisi2
 4694 1698 750053E3 		cmp	r3, #117
 4695 169c 0900001A 		bne	.L139
 791:../proyecto.c **** 				*txtOut++ = 'k';
 4696              		.loc 1 791 0
 4697 16a0 14301BE5 		ldr	r3, [fp, #-20]
 4698 16a4 6B20A0E3 		mov	r2, #107
 4699 16a8 0020C3E5 		strb	r2, [r3, #0]
 4700 16ac 14301BE5 		ldr	r3, [fp, #-20]
 4701 16b0 013083E2 		add	r3, r3, #1
 4702 16b4 14300BE5 		str	r3, [fp, #-20]
 792:../proyecto.c **** 				txtIn += 2;
 4703              		.loc 1 792 0
 4704 16b8 10301BE5 		ldr	r3, [fp, #-16]
 4705 16bc 023083E2 		add	r3, r3, #2
 4706 16c0 10300BE5 		str	r3, [fp, #-16]
 793:../proyecto.c **** 			}
 794:../proyecto.c **** 			else{
 795:../proyecto.c **** 				*txtOut++ = 'q';
 796:../proyecto.c **** 				txtIn++;
 797:../proyecto.c **** 			}
 798:../proyecto.c **** 			break;
 4707              		.loc 1 798 0
 4708 16c4 7E0000EA 		b	.L102
 4709              	.L139:
 795:../proyecto.c **** 				*txtOut++ = 'q';
 4710              		.loc 1 795 0
 4711 16c8 14301BE5 		ldr	r3, [fp, #-20]
 4712 16cc 7120A0E3 		mov	r2, #113
 4713 16d0 0020C3E5 		strb	r2, [r3, #0]
 4714 16d4 14301BE5 		ldr	r3, [fp, #-20]
 4715 16d8 013083E2 		add	r3, r3, #1
 4716 16dc 14300BE5 		str	r3, [fp, #-20]
 796:../proyecto.c **** 				txtIn++;
 4717              		.loc 1 796 0
 4718 16e0 10301BE5 		ldr	r3, [fp, #-16]
 4719 16e4 013083E2 		add	r3, r3, #1
 4720 16e8 10300BE5 		str	r3, [fp, #-16]
 4721              		.loc 1 798 0
 4722 16ec 740000EA 		b	.L102
 4723              	.L121:
 799:../proyecto.c **** 
 800:../proyecto.c **** 
 801:../proyecto.c **** 		case 'r':
 802:../proyecto.c **** 			if (txtIn[1] == 'r'){
 4724              		.loc 1 802 0
 4725 16f0 10301BE5 		ldr	r3, [fp, #-16]
 4726 16f4 013083E2 		add	r3, r3, #1
 4727 16f8 0030D3E5 		ldrb	r3, [r3, #0]	@ zero_extendqisi2
 4728 16fc 720053E3 		cmp	r3, #114
 4729 1700 0900001A 		bne	.L141
 803:../proyecto.c **** 				*txtOut++ = 'R';
 4730              		.loc 1 803 0
 4731 1704 14301BE5 		ldr	r3, [fp, #-20]
 4732 1708 5220A0E3 		mov	r2, #82
 4733 170c 0020C3E5 		strb	r2, [r3, #0]
 4734 1710 14301BE5 		ldr	r3, [fp, #-20]
 4735 1714 013083E2 		add	r3, r3, #1
 4736 1718 14300BE5 		str	r3, [fp, #-20]
 804:../proyecto.c **** 				txtIn += 2;
 4737              		.loc 1 804 0
 4738 171c 10301BE5 		ldr	r3, [fp, #-16]
 4739 1720 023083E2 		add	r3, r3, #2
 4740 1724 10300BE5 		str	r3, [fp, #-16]
 805:../proyecto.c **** 			}
 806:../proyecto.c **** 			else{
 807:../proyecto.c **** 				*txtOut++ = 'r';
 808:../proyecto.c **** 				txtIn++;
 809:../proyecto.c **** 			}
 810:../proyecto.c **** 			break;
 4741              		.loc 1 810 0
 4742 1728 650000EA 		b	.L102
 4743              	.L141:
 807:../proyecto.c **** 				*txtOut++ = 'r';
 4744              		.loc 1 807 0
 4745 172c 14301BE5 		ldr	r3, [fp, #-20]
 4746 1730 7220A0E3 		mov	r2, #114
 4747 1734 0020C3E5 		strb	r2, [r3, #0]
 4748 1738 14301BE5 		ldr	r3, [fp, #-20]
 4749 173c 013083E2 		add	r3, r3, #1
 4750 1740 14300BE5 		str	r3, [fp, #-20]
 808:../proyecto.c **** 				txtIn++;
 4751              		.loc 1 808 0
 4752 1744 10301BE5 		ldr	r3, [fp, #-16]
 4753 1748 013083E2 		add	r3, r3, #1
 4754 174c 10300BE5 		str	r3, [fp, #-16]
 4755              		.loc 1 810 0
 4756 1750 5B0000EA 		b	.L102
 4757              	.L123:
 811:../proyecto.c **** 
 812:../proyecto.c **** 
 813:../proyecto.c **** 		case 'y':
 814:../proyecto.c **** 			if (txtIn[1] == ' '){
 4758              		.loc 1 814 0
 4759 1754 10301BE5 		ldr	r3, [fp, #-16]
 4760 1758 013083E2 		add	r3, r3, #1
 4761 175c 0030D3E5 		ldrb	r3, [r3, #0]	@ zero_extendqisi2
 4762 1760 200053E3 		cmp	r3, #32
 4763 1764 0900001A 		bne	.L143
 815:../proyecto.c **** 				*txtOut++ = 'i';
 4764              		.loc 1 815 0
 4765 1768 14301BE5 		ldr	r3, [fp, #-20]
 4766 176c 6920A0E3 		mov	r2, #105
 4767 1770 0020C3E5 		strb	r2, [r3, #0]
 4768 1774 14301BE5 		ldr	r3, [fp, #-20]
 4769 1778 013083E2 		add	r3, r3, #1
 4770 177c 14300BE5 		str	r3, [fp, #-20]
 816:../proyecto.c **** 				txtIn++;
 4771              		.loc 1 816 0
 4772 1780 10301BE5 		ldr	r3, [fp, #-16]
 4773 1784 013083E2 		add	r3, r3, #1
 4774 1788 10300BE5 		str	r3, [fp, #-16]
 817:../proyecto.c **** 			}
 818:../proyecto.c **** 			else{
 819:../proyecto.c **** 				*txtOut++ = 'y';
 820:../proyecto.c **** 				txtIn++;
 821:../proyecto.c **** 			}
 822:../proyecto.c **** 			break;
 4775              		.loc 1 822 0
 4776 178c 4C0000EA 		b	.L102
 4777              	.L143:
 819:../proyecto.c **** 				*txtOut++ = 'y';
 4778              		.loc 1 819 0
 4779 1790 14301BE5 		ldr	r3, [fp, #-20]
 4780 1794 7920A0E3 		mov	r2, #121
 4781 1798 0020C3E5 		strb	r2, [r3, #0]
 4782 179c 14301BE5 		ldr	r3, [fp, #-20]
 4783 17a0 013083E2 		add	r3, r3, #1
 4784 17a4 14300BE5 		str	r3, [fp, #-20]
 820:../proyecto.c **** 				txtIn++;
 4785              		.loc 1 820 0
 4786 17a8 10301BE5 		ldr	r3, [fp, #-16]
 4787 17ac 013083E2 		add	r3, r3, #1
 4788 17b0 10300BE5 		str	r3, [fp, #-16]
 4789              		.loc 1 822 0
 4790 17b4 420000EA 		b	.L102
 4791              	.L104:
 823:../proyecto.c **** 
 824:../proyecto.c **** 
 825:../proyecto.c **** 		case ' ':
 826:../proyecto.c **** 			if (txtIn[1] == 'r'){
 4792              		.loc 1 826 0
 4793 17b8 10301BE5 		ldr	r3, [fp, #-16]
 4794 17bc 013083E2 		add	r3, r3, #1
 4795 17c0 0030D3E5 		ldrb	r3, [r3, #0]	@ zero_extendqisi2
 4796 17c4 720053E3 		cmp	r3, #114
 4797 17c8 0F00001A 		bne	.L145
 827:../proyecto.c **** 				*txtOut++ = ' ';
 4798              		.loc 1 827 0
 4799 17cc 14301BE5 		ldr	r3, [fp, #-20]
 4800 17d0 2020A0E3 		mov	r2, #32
 4801 17d4 0020C3E5 		strb	r2, [r3, #0]
 4802 17d8 14301BE5 		ldr	r3, [fp, #-20]
 4803 17dc 013083E2 		add	r3, r3, #1
 4804 17e0 14300BE5 		str	r3, [fp, #-20]
 828:../proyecto.c **** 				*txtOut++ = 'R';
 4805              		.loc 1 828 0
 4806 17e4 14301BE5 		ldr	r3, [fp, #-20]
 4807 17e8 5220A0E3 		mov	r2, #82
 4808 17ec 0020C3E5 		strb	r2, [r3, #0]
 4809 17f0 14301BE5 		ldr	r3, [fp, #-20]
 4810 17f4 013083E2 		add	r3, r3, #1
 4811 17f8 14300BE5 		str	r3, [fp, #-20]
 829:../proyecto.c **** 				txtIn+=2;
 4812              		.loc 1 829 0
 4813 17fc 10301BE5 		ldr	r3, [fp, #-16]
 4814 1800 023083E2 		add	r3, r3, #2
 4815 1804 10300BE5 		str	r3, [fp, #-16]
 830:../proyecto.c **** 			}
 831:../proyecto.c **** 			else{
 832:../proyecto.c **** 				*txtOut++ = ' ';
 833:../proyecto.c **** 				txtIn++;
 834:../proyecto.c **** 			}
 835:../proyecto.c **** 			break;
 4816              		.loc 1 835 0
 4817 1808 2D0000EA 		b	.L102
 4818              	.L145:
 832:../proyecto.c **** 				*txtOut++ = ' ';
 4819              		.loc 1 832 0
 4820 180c 14301BE5 		ldr	r3, [fp, #-20]
 4821 1810 2020A0E3 		mov	r2, #32
 4822 1814 0020C3E5 		strb	r2, [r3, #0]
 4823 1818 14301BE5 		ldr	r3, [fp, #-20]
 4824 181c 013083E2 		add	r3, r3, #1
 4825 1820 14300BE5 		str	r3, [fp, #-20]
 833:../proyecto.c **** 				txtIn++;
 4826              		.loc 1 833 0
 4827 1824 10301BE5 		ldr	r3, [fp, #-16]
 4828 1828 013083E2 		add	r3, r3, #1
 4829 182c 10300BE5 		str	r3, [fp, #-16]
 4830              		.loc 1 835 0
 4831 1830 230000EA 		b	.L102
 4832              	.L122:
 836:../proyecto.c **** 
 837:../proyecto.c **** 
 838:../proyecto.c **** 		case 'w':
 839:../proyecto.c **** 			*txtOut++ = 'g';
 4833              		.loc 1 839 0
 4834 1834 14301BE5 		ldr	r3, [fp, #-20]
 4835 1838 6720A0E3 		mov	r2, #103
 4836 183c 0020C3E5 		strb	r2, [r3, #0]
 4837 1840 14301BE5 		ldr	r3, [fp, #-20]
 4838 1844 013083E2 		add	r3, r3, #1
 4839 1848 14300BE5 		str	r3, [fp, #-20]
 840:../proyecto.c **** 			*txtOut++ = 'u';
 4840              		.loc 1 840 0
 4841 184c 14301BE5 		ldr	r3, [fp, #-20]
 4842 1850 7520A0E3 		mov	r2, #117
 4843 1854 0020C3E5 		strb	r2, [r3, #0]
 4844 1858 14301BE5 		ldr	r3, [fp, #-20]
 4845 185c 013083E2 		add	r3, r3, #1
 4846 1860 14300BE5 		str	r3, [fp, #-20]
 841:../proyecto.c **** 			txtIn++;
 4847              		.loc 1 841 0
 4848 1864 10301BE5 		ldr	r3, [fp, #-16]
 4849 1868 013083E2 		add	r3, r3, #1
 4850 186c 10300BE5 		str	r3, [fp, #-16]
 842:../proyecto.c **** 			break;
 4851              		.loc 1 842 0
 4852 1870 130000EA 		b	.L102
 4853              	.L124:
 843:../proyecto.c **** 
 844:../proyecto.c **** 		case 'ñ':
 845:../proyecto.c **** 			*txtOut++ = 'N';
 4854              		.loc 1 845 0
 4855 1874 14301BE5 		ldr	r3, [fp, #-20]
 4856 1878 4E20A0E3 		mov	r2, #78
 4857 187c 0020C3E5 		strb	r2, [r3, #0]
 4858 1880 14301BE5 		ldr	r3, [fp, #-20]
 4859 1884 013083E2 		add	r3, r3, #1
 4860 1888 14300BE5 		str	r3, [fp, #-20]
 846:../proyecto.c **** 			txtIn++;
 4861              		.loc 1 846 0
 4862 188c 10301BE5 		ldr	r3, [fp, #-16]
 4863 1890 013083E2 		add	r3, r3, #1
 4864 1894 10300BE5 		str	r3, [fp, #-16]
 847:../proyecto.c **** 			break;
 4865              		.loc 1 847 0
 4866 1898 090000EA 		b	.L102
 4867              	.L103:
 848:../proyecto.c **** 
 849:../proyecto.c **** 		default:
 850:../proyecto.c **** 			*txtOut++ = *txtIn++;
 4868              		.loc 1 850 0
 4869 189c 10301BE5 		ldr	r3, [fp, #-16]
 4870 18a0 0020D3E5 		ldrb	r2, [r3, #0]	@ zero_extendqisi2
 4871 18a4 14301BE5 		ldr	r3, [fp, #-20]
 4872 18a8 0020C3E5 		strb	r2, [r3, #0]
 4873 18ac 14301BE5 		ldr	r3, [fp, #-20]
 4874 18b0 013083E2 		add	r3, r3, #1
 4875 18b4 14300BE5 		str	r3, [fp, #-20]
 4876 18b8 10301BE5 		ldr	r3, [fp, #-16]
 4877 18bc 013083E2 		add	r3, r3, #1
 4878 18c0 10300BE5 		str	r3, [fp, #-16]
 4879              	.L102:
 648:../proyecto.c **** 	while (*txtIn)
 4880              		.loc 1 648 0 discriminator 1
 4881 18c4 10301BE5 		ldr	r3, [fp, #-16]
 4882 18c8 0030D3E5 		ldrb	r3, [r3, #0]	@ zero_extendqisi2
 4883 18cc 000053E3 		cmp	r3, #0
 4884 18d0 D6FCFF1A 		bne	.L147
 851:../proyecto.c **** 	}
 852:../proyecto.c **** 	*txtOut = '\0';
 4885              		.loc 1 852 0
 4886 18d4 14301BE5 		ldr	r3, [fp, #-20]
 4887 18d8 0020A0E3 		mov	r2, #0
 4888 18dc 0020C3E5 		strb	r2, [r3, #0]
 853:../proyecto.c **** }
 4889              		.loc 1 853 0
 4890 18e0 0CD04BE2 		sub	sp, fp, #12
 4891 18e4 00689DE8 		ldmfd	sp, {fp, sp, lr}
 4892 18e8 1EFF2FE1 		bx	lr
 4893              	.L149:
 4894              		.align	2
 4895              	.L148:
 4896 18ec 00080280 		.word	-2147350528
 4897              		.cfi_endproc
 4898              	.LFE16:
 4900              		.align	2
 4902              	faseMonolitera:
 4903              	.LFB17:
 854:../proyecto.c **** 
 855:../proyecto.c **** static void faseMonolitera(char *txtIn, char *txtOut){
 4904              		.loc 1 855 0
 4905              		.cfi_startproc
 4906              		@ Function supports interworking.
 4907              		@ args = 0, pretend = 0, frame = 8
 4908              		@ frame_needed = 1, uses_anonymous_args = 0
 4909 18f0 0DC0A0E1 		mov	ip, sp
 4910              	.LCFI34:
 4911              		.cfi_def_cfa_register 12
 4912 18f4 00D82DE9 		stmfd	sp!, {fp, ip, lr, pc}
 4913 18f8 04B04CE2 		sub	fp, ip, #4
 4914              		.cfi_offset 14, -8
 4915              		.cfi_offset 13, -12
 4916              		.cfi_offset 11, -16
 4917              	.LCFI35:
 4918              		.cfi_def_cfa 11, 4
 4919 18fc 08D04DE2 		sub	sp, sp, #8
 4920 1900 10000BE5 		str	r0, [fp, #-16]
 4921 1904 14100BE5 		str	r1, [fp, #-20]
 856:../proyecto.c **** 	static const char charMap[256] = {
 857:../proyecto.c **** 
 858:../proyecto.c **** 		'-', '-', '-', '-', '-', '-', '-', '-', '-', '-', '-', '-', '-', '-', '-', '-',
 859:../proyecto.c **** 		'-', '-', '-', '-', '-', '-', '-', '-', '-', '-', '-', '-', '-', '-', '-', '-',
 860:../proyecto.c **** 		' ', '-', '-', '-', '-', '-', '-', '-', '-', '-', '-', '-', ',', '-', '.', '-',
 861:../proyecto.c **** 		'0', '1', '2', '3', '4', '5', '6', '7', '8', '9', '-', '-', '-', '-', '-', '-',
 862:../proyecto.c **** 		'-', 'a', 'b', 'c', 'd', 'e', 'f', 'g', 'h', 'i', 'j', 'k', 'l', 'm', 'n', 'o',
 863:../proyecto.c **** 		'p', 'q', 'r', 's', 't', 'u', 'b', 'w', 'x', 'y', 'z', '-', '-', '-', '-', '-',
 864:../proyecto.c **** 		'-', 'a', 'b', 'c', 'd', 'e', 'f', 'g', 'h', 'i', 'j', 'k', 'l', 'm', 'n', 'o',
 865:../proyecto.c **** 		'p', 'q', 'r', 's', 't', 'u', 'b', 'w', 'x', 'y', 'z', '-', '-', '-', '-', '-',
 866:../proyecto.c **** 
 867:../proyecto.c **** 		'-', '-', '-', '-', '-', '-', '-', '-', '-', '-', '-', '-', '-', '-', '-', '-',
 868:../proyecto.c **** 		'-', '-', '-', '-', '-', '-', '-', '-', '-', '-', '-', '-', '-', '-', '-', '-',
 869:../proyecto.c **** 		'-', '-', '-', '-', '-', '-', '-', '-', '-', '-', '-', '-', '-', '-', '-', '-',
 870:../proyecto.c **** 		'-', '-', '-', '-', '-', '-', '-', '-', '-', '-', '-', '-', '-', '-', '-', '-',	
 871:../proyecto.c **** 		'a', 'a', 'a', 'a', 'a', '-', '-', '-', 'e', 'e', 'e', 'e', 'i', 'i', 'i', 'i',	
 872:../proyecto.c **** 		'-', 'ñ', 'o', 'o', 'o', 'o', 'o', 'x', 'o', 'u', 'u', 'u', 'ü', '-', '-', '-',
 873:../proyecto.c **** 		'a', 'a', 'a', 'a', 'a', '-', '-', '-', 'e', 'e', 'e', 'e', 'i', 'i', 'i', 'i', 
 874:../proyecto.c **** 		'-', 'ñ', 'o', 'o', 'o', 'o', 'o', 'x', 'o', 'u', 'u', 'u', 'ü', '-', '-', '-',
 875:../proyecto.c **** 		
 876:../proyecto.c **** 
 877:../proyecto.c **** 	};
 878:../proyecto.c **** 	while (*txtIn)
 4922              		.loc 1 878 0
 4923 1908 0B0000EA 		b	.L151
 4924              	.L152:
 879:../proyecto.c **** 		*txtOut++ = charMap[(uint8)*txtIn++];
 4925              		.loc 1 879 0
 4926 190c 10301BE5 		ldr	r3, [fp, #-16]
 4927 1910 0030D3E5 		ldrb	r3, [r3, #0]	@ zero_extendqisi2
 4928 1914 48209FE5 		ldr	r2, .L153
 4929 1918 0320D2E7 		ldrb	r2, [r2, r3]	@ zero_extendqisi2
 4930 191c 14301BE5 		ldr	r3, [fp, #-20]
 4931 1920 0020C3E5 		strb	r2, [r3, #0]
 4932 1924 14301BE5 		ldr	r3, [fp, #-20]
 4933 1928 013083E2 		add	r3, r3, #1
 4934 192c 14300BE5 		str	r3, [fp, #-20]
 4935 1930 10301BE5 		ldr	r3, [fp, #-16]
 4936 1934 013083E2 		add	r3, r3, #1
 4937 1938 10300BE5 		str	r3, [fp, #-16]
 4938              	.L151:
 878:../proyecto.c **** 	while (*txtIn)
 4939              		.loc 1 878 0 discriminator 1
 4940 193c 10301BE5 		ldr	r3, [fp, #-16]
 4941 1940 0030D3E5 		ldrb	r3, [r3, #0]	@ zero_extendqisi2
 4942 1944 000053E3 		cmp	r3, #0
 4943 1948 EFFFFF1A 		bne	.L152
 880:../proyecto.c **** 	*txtOut = '\0';
 4944              		.loc 1 880 0
 4945 194c 14301BE5 		ldr	r3, [fp, #-20]
 4946 1950 0020A0E3 		mov	r2, #0
 4947 1954 0020C3E5 		strb	r2, [r3, #0]
 881:../proyecto.c **** }
 4948              		.loc 1 881 0
 4949 1958 0CD04BE2 		sub	sp, fp, #12
 4950 195c 00689DE8 		ldmfd	sp, {fp, sp, lr}
 4951 1960 1EFF2FE1 		bx	lr
 4952              	.L154:
 4953              		.align	2
 4954              	.L153:
 4955 1964 4C030000 		.word	charMap.4573
 4956              		.cfi_endproc
 4957              	.LFE17:
 4959              		.align	2
 4961              	getSyllableId:
 4962              	.LFB18:
 882:../proyecto.c **** 
 883:../proyecto.c **** static char *getSyllableId(char *txt, syllableId_t *id){
 4963              		.loc 1 883 0
 4964              		.cfi_startproc
 4965              		@ Function supports interworking.
 4966              		@ args = 0, pretend = 0, frame = 8
 4967              		@ frame_needed = 1, uses_anonymous_args = 0
 4968 1968 0DC0A0E1 		mov	ip, sp
 4969              	.LCFI36:
 4970              		.cfi_def_cfa_register 12
 4971 196c 00D82DE9 		stmfd	sp!, {fp, ip, lr, pc}
 4972 1970 04B04CE2 		sub	fp, ip, #4
 4973              		.cfi_offset 14, -8
 4974              		.cfi_offset 13, -12
 4975              		.cfi_offset 11, -16
 4976              	.LCFI37:
 4977              		.cfi_def_cfa 11, 4
 4978 1974 08D04DE2 		sub	sp, sp, #8
 4979 1978 10000BE5 		str	r0, [fp, #-16]
 4980 197c 14100BE5 		str	r1, [fp, #-20]
 884:../proyecto.c **** 	if (!*txt)
 4981              		.loc 1 884 0
 4982 1980 10301BE5 		ldr	r3, [fp, #-16]
 4983 1984 0030D3E5 		ldrb	r3, [r3, #0]	@ zero_extendqisi2
 4984 1988 000053E3 		cmp	r3, #0
 4985 198c 0100001A 		bne	.L156
 885:../proyecto.c **** 		return NULL;
 4986              		.loc 1 885 0
 4987 1990 0030A0E3 		mov	r3, #0
 4988 1994 AE0700EA 		b	.L157
 4989              	.L156:
 886:../proyecto.c **** 	else if (esPuntuacion(txt[0])) {
 4990              		.loc 1 886 0
 4991 1998 10301BE5 		ldr	r3, [fp, #-16]
 4992 199c 0030D3E5 		ldrb	r3, [r3, #0]	@ zero_extendqisi2
 4993 19a0 0300A0E1 		mov	r0, r3
 4994 19a4 FDFBFFEB 		bl	esPuntuacion
 4995 19a8 0030A0E1 		mov	r3, r0
 4996 19ac 000053E3 		cmp	r3, #0
 4997 19b0 1600000A 		beq	.L158
 887:../proyecto.c **** 		switch (txt[0]) {
 4998              		.loc 1 887 0
 4999 19b4 10301BE5 		ldr	r3, [fp, #-16]
 5000 19b8 0030D3E5 		ldrb	r3, [r3, #0]	@ zero_extendqisi2
 5001 19bc 2C0053E3 		cmp	r3, #44
 5002 19c0 0700000A 		beq	.L161
 5003 19c4 2E0053E3 		cmp	r3, #46
 5004 19c8 0900000A 		beq	.L162
 5005 19cc 200053E3 		cmp	r3, #32
 5006 19d0 0B00001A 		bne	.L159
 5007              	.L160:
 888:../proyecto.c **** 		case ' ': *id = espacio; break;
 5008              		.loc 1 888 0
 5009 19d4 14301BE5 		ldr	r3, [fp, #-20]
 5010 19d8 4C20E0E3 		mvn	r2, #76
 5011 19dc 0020C3E5 		strb	r2, [r3, #0]
 5012 19e0 070000EA 		b	.L159
 5013              	.L161:
 889:../proyecto.c **** 		case ',': *id = coma; break;
 5014              		.loc 1 889 0
 5015 19e4 14301BE5 		ldr	r3, [fp, #-20]
 5016 19e8 4B20E0E3 		mvn	r2, #75
 5017 19ec 0020C3E5 		strb	r2, [r3, #0]
 5018 19f0 030000EA 		b	.L159
 5019              	.L162:
 890:../proyecto.c **** 		case '.': *id = punto; break;
 5020              		.loc 1 890 0
 5021 19f4 14301BE5 		ldr	r3, [fp, #-20]
 5022 19f8 4A20E0E3 		mvn	r2, #74
 5023 19fc 0020C3E5 		strb	r2, [r3, #0]
 5024 1a00 0000A0E1 		mov	r0, r0	@ nop
 5025              	.L159:
 891:../proyecto.c **** 		}
 892:../proyecto.c **** 		return txt + 1;
 5026              		.loc 1 892 0
 5027 1a04 10301BE5 		ldr	r3, [fp, #-16]
 5028 1a08 013083E2 		add	r3, r3, #1
 5029 1a0c 900700EA 		b	.L157
 5030              	.L158:
 893:../proyecto.c **** 	}
 894:../proyecto.c **** 	else if (esVocal(txt[0]))	{
 5031              		.loc 1 894 0
 5032 1a10 10301BE5 		ldr	r3, [fp, #-16]
 5033 1a14 0030D3E5 		ldrb	r3, [r3, #0]	@ zero_extendqisi2
 5034 1a18 0300A0E1 		mov	r0, r3
 5035 1a1c F5FBFFEB 		bl	esVocal
 5036 1a20 0030A0E1 		mov	r3, r0
 5037 1a24 000053E3 		cmp	r3, #0
 5038 1a28 3100000A 		beq	.L163
 895:../proyecto.c **** 		switch (txt[0]) {
 5039              		.loc 1 895 0
 5040 1a2c 10301BE5 		ldr	r3, [fp, #-16]
 5041 1a30 0030D3E5 		ldrb	r3, [r3, #0]	@ zero_extendqisi2
 5042 1a34 613043E2 		sub	r3, r3, #97
 5043 1a38 140053E3 		cmp	r3, #20
 5044 1a3c 03F19F97 		ldrls	pc, [pc, r3, asl #2]
 5045 1a40 280000EA 		b	.L164
 5046              	.L170:
 5047 1a44 981A0000 		.word	.L165
 5048 1a48 E81A0000 		.word	.L164
 5049 1a4c E81A0000 		.word	.L164
 5050 1a50 E81A0000 		.word	.L164
 5051 1a54 A81A0000 		.word	.L166
 5052 1a58 E81A0000 		.word	.L164
 5053 1a5c E81A0000 		.word	.L164
 5054 1a60 E81A0000 		.word	.L164
 5055 1a64 B81A0000 		.word	.L167
 5056 1a68 E81A0000 		.word	.L164
 5057 1a6c E81A0000 		.word	.L164
 5058 1a70 E81A0000 		.word	.L164
 5059 1a74 E81A0000 		.word	.L164
 5060 1a78 E81A0000 		.word	.L164
 5061 1a7c C81A0000 		.word	.L168
 5062 1a80 E81A0000 		.word	.L164
 5063 1a84 E81A0000 		.word	.L164
 5064 1a88 E81A0000 		.word	.L164
 5065 1a8c E81A0000 		.word	.L164
 5066 1a90 E81A0000 		.word	.L164
 5067 1a94 D81A0000 		.word	.L169
 5068              	.L165:
 896:../proyecto.c **** 		case 'a': *id = a; break;
 5069              		.loc 1 896 0
 5070 1a98 14301BE5 		ldr	r3, [fp, #-20]
 5071 1a9c 0020A0E3 		mov	r2, #0
 5072 1aa0 0020C3E5 		strb	r2, [r3, #0]
 5073 1aa4 0F0000EA 		b	.L164
 5074              	.L166:
 897:../proyecto.c **** 		case 'e': *id = e; break;
 5075              		.loc 1 897 0
 5076 1aa8 14301BE5 		ldr	r3, [fp, #-20]
 5077 1aac 0120A0E3 		mov	r2, #1
 5078 1ab0 0020C3E5 		strb	r2, [r3, #0]
 5079 1ab4 0B0000EA 		b	.L164
 5080              	.L167:
 898:../proyecto.c **** 		case 'i': *id = i; break;
 5081              		.loc 1 898 0
 5082 1ab8 14301BE5 		ldr	r3, [fp, #-20]
 5083 1abc 0220A0E3 		mov	r2, #2
 5084 1ac0 0020C3E5 		strb	r2, [r3, #0]
 5085 1ac4 070000EA 		b	.L164
 5086              	.L168:
 899:../proyecto.c **** 		case 'o': *id = o; break;
 5087              		.loc 1 899 0
 5088 1ac8 14301BE5 		ldr	r3, [fp, #-20]
 5089 1acc 0320A0E3 		mov	r2, #3
 5090 1ad0 0020C3E5 		strb	r2, [r3, #0]
 5091 1ad4 030000EA 		b	.L164
 5092              	.L169:
 900:../proyecto.c **** 		case 'u': *id = u; break;
 5093              		.loc 1 900 0
 5094 1ad8 14301BE5 		ldr	r3, [fp, #-20]
 5095 1adc 0420A0E3 		mov	r2, #4
 5096 1ae0 0020C3E5 		strb	r2, [r3, #0]
 5097 1ae4 0000A0E1 		mov	r0, r0	@ nop
 5098              	.L164:
 901:../proyecto.c **** 		}
 902:../proyecto.c **** 		return txt + 1;
 5099              		.loc 1 902 0
 5100 1ae8 10301BE5 		ldr	r3, [fp, #-16]
 5101 1aec 013083E2 		add	r3, r3, #1
 5102 1af0 570700EA 		b	.L157
 5103              	.L163:
 903:../proyecto.c **** 	}
 904:../proyecto.c **** 	else if (esConsonante(txt[0]) && esVocal(txt[1])) {
 5104              		.loc 1 904 0
 5105 1af4 10301BE5 		ldr	r3, [fp, #-16]
 5106 1af8 0030D3E5 		ldrb	r3, [r3, #0]	@ zero_extendqisi2
 5107 1afc 0300A0E1 		mov	r0, r3
 5108 1b00 D2FBFFEB 		bl	esConsonante
 5109 1b04 0030A0E1 		mov	r3, r0
 5110 1b08 000053E3 		cmp	r3, #0
 5111 1b0c 0B04000A 		beq	.L171
 5112              		.loc 1 904 0 is_stmt 0 discriminator 1
 5113 1b10 10301BE5 		ldr	r3, [fp, #-16]
 5114 1b14 013083E2 		add	r3, r3, #1
 5115 1b18 0030D3E5 		ldrb	r3, [r3, #0]	@ zero_extendqisi2
 5116 1b1c 0300A0E1 		mov	r0, r3
 5117 1b20 B4FBFFEB 		bl	esVocal
 5118 1b24 0030A0E1 		mov	r3, r0
 5119 1b28 000053E3 		cmp	r3, #0
 5120 1b2c 0304000A 		beq	.L171
 905:../proyecto.c **** 		switch (txt[0]) {
 5121              		.loc 1 905 0 is_stmt 1
 5122 1b30 10301BE5 		ldr	r3, [fp, #-16]
 5123 1b34 0030D3E5 		ldrb	r3, [r3, #0]	@ zero_extendqisi2
 5124 1b38 483043E2 		sub	r3, r3, #72
 5125 1b3c 320053E3 		cmp	r3, #50
 5126 1b40 03F19F97 		ldrls	pc, [pc, r3, asl #2]
 5127 1b44 FA0300EA 		b	.L172
 5128              	.L192:
 5129 1b48 DC290000 		.word	.L173
 5130 1b4c 342B0000 		.word	.L172
 5131 1b50 342B0000 		.word	.L172
 5132 1b54 342B0000 		.word	.L172
 5133 1b58 342B0000 		.word	.L172
 5134 1b5c 342B0000 		.word	.L172
 5135 1b60 F8220000 		.word	.L174
 5136 1b64 342B0000 		.word	.L172
 5137 1b68 342B0000 		.word	.L172
 5138 1b6c 342B0000 		.word	.L172
 5139 1b70 44250000 		.word	.L175
 5140 1b74 342B0000 		.word	.L172
 5141 1b78 342B0000 		.word	.L172
 5142 1b7c 342B0000 		.word	.L172
 5143 1b80 342B0000 		.word	.L172
 5144 1b84 342B0000 		.word	.L172
 5145 1b88 342B0000 		.word	.L172
 5146 1b8c 342B0000 		.word	.L172
 5147 1b90 342B0000 		.word	.L172
 5148 1b94 342B0000 		.word	.L172
 5149 1b98 342B0000 		.word	.L172
 5150 1b9c 342B0000 		.word	.L172
 5151 1ba0 342B0000 		.word	.L172
 5152 1ba4 342B0000 		.word	.L172
 5153 1ba8 342B0000 		.word	.L172
 5154 1bac 342B0000 		.word	.L172
 5155 1bb0 141C0000 		.word	.L176
 5156 1bb4 342B0000 		.word	.L172
 5157 1bb8 D81C0000 		.word	.L177
 5158 1bbc 342B0000 		.word	.L172
 5159 1bc0 9C1D0000 		.word	.L178
 5160 1bc4 601E0000 		.word	.L179
 5161 1bc8 342B0000 		.word	.L172
 5162 1bcc 342B0000 		.word	.L172
 5163 1bd0 241F0000 		.word	.L180
 5164 1bd4 E81F0000 		.word	.L181
 5165 1bd8 AC200000 		.word	.L182
 5166 1bdc 70210000 		.word	.L183
 5167 1be0 34220000 		.word	.L184
 5168 1be4 342B0000 		.word	.L172
 5169 1be8 BC230000 		.word	.L185
 5170 1bec 342B0000 		.word	.L172
 5171 1bf0 80240000 		.word	.L186
 5172 1bf4 08260000 		.word	.L187
 5173 1bf8 CC260000 		.word	.L188
 5174 1bfc 342B0000 		.word	.L172
 5175 1c00 342B0000 		.word	.L172
 5176 1c04 342B0000 		.word	.L172
 5177 1c08 90270000 		.word	.L189
 5178 1c0c 54280000 		.word	.L190
 5179 1c10 18290000 		.word	.L191
 5180              	.L176:
 906:../proyecto.c **** 		case 'b':
 907:../proyecto.c **** 			switch (txt[1]) {
 5181              		.loc 1 907 0
 5182 1c14 10301BE5 		ldr	r3, [fp, #-16]
 5183 1c18 013083E2 		add	r3, r3, #1
 5184 1c1c 0030D3E5 		ldrb	r3, [r3, #0]	@ zero_extendqisi2
 5185 1c20 613043E2 		sub	r3, r3, #97
 5186 1c24 140053E3 		cmp	r3, #20
 5187 1c28 03F19F97 		ldrls	pc, [pc, r3, asl #2]
 5188 1c2c 9B0300EA 		b	.L449
 5189              	.L199:
 5190 1c30 841C0000 		.word	.L194
 5191 1c34 A02A0000 		.word	.L449
 5192 1c38 A02A0000 		.word	.L449
 5193 1c3c A02A0000 		.word	.L449
 5194 1c40 941C0000 		.word	.L195
 5195 1c44 A02A0000 		.word	.L449
 5196 1c48 A02A0000 		.word	.L449
 5197 1c4c A02A0000 		.word	.L449
 5198 1c50 A41C0000 		.word	.L196
 5199 1c54 A02A0000 		.word	.L449
 5200 1c58 A02A0000 		.word	.L449
 5201 1c5c A02A0000 		.word	.L449
 5202 1c60 A02A0000 		.word	.L449
 5203 1c64 A02A0000 		.word	.L449
 5204 1c68 B41C0000 		.word	.L197
 5205 1c6c A02A0000 		.word	.L449
 5206 1c70 A02A0000 		.word	.L449
 5207 1c74 A02A0000 		.word	.L449
 5208 1c78 A02A0000 		.word	.L449
 5209 1c7c A02A0000 		.word	.L449
 5210 1c80 C41C0000 		.word	.L198
 5211              	.L194:
 908:../proyecto.c **** 			case 'a': *id = ba; break;
 5212              		.loc 1 908 0
 5213 1c84 14301BE5 		ldr	r3, [fp, #-20]
 5214 1c88 1820A0E3 		mov	r2, #24
 5215 1c8c 0020C3E5 		strb	r2, [r3, #0]
 5216 1c90 0F0000EA 		b	.L193
 5217              	.L195:
 909:../proyecto.c **** 			case 'e': *id = be; break;
 5218              		.loc 1 909 0
 5219 1c94 14301BE5 		ldr	r3, [fp, #-20]
 5220 1c98 1920A0E3 		mov	r2, #25
 5221 1c9c 0020C3E5 		strb	r2, [r3, #0]
 5222 1ca0 0B0000EA 		b	.L193
 5223              	.L196:
 910:../proyecto.c **** 			case 'i': *id = bi; break;
 5224              		.loc 1 910 0
 5225 1ca4 14301BE5 		ldr	r3, [fp, #-20]
 5226 1ca8 1A20A0E3 		mov	r2, #26
 5227 1cac 0020C3E5 		strb	r2, [r3, #0]
 5228 1cb0 070000EA 		b	.L193
 5229              	.L197:
 911:../proyecto.c **** 			case 'o': *id = bo; break;
 5230              		.loc 1 911 0
 5231 1cb4 14301BE5 		ldr	r3, [fp, #-20]
 5232 1cb8 1B20A0E3 		mov	r2, #27
 5233 1cbc 0020C3E5 		strb	r2, [r3, #0]
 5234 1cc0 030000EA 		b	.L193
 5235              	.L198:
 912:../proyecto.c **** 			case 'u': *id = bu; break;
 5236              		.loc 1 912 0
 5237 1cc4 14301BE5 		ldr	r3, [fp, #-20]
 5238 1cc8 1C20A0E3 		mov	r2, #28
 5239 1ccc 0020C3E5 		strb	r2, [r3, #0]
 5240 1cd0 0000A0E1 		mov	r0, r0	@ nop
 5241              	.L193:
 913:../proyecto.c **** 			}
 914:../proyecto.c **** 			break;
 5242              		.loc 1 914 0
 5243 1cd4 960300EA 		b	.L172
 5244              	.L177:
 915:../proyecto.c **** 
 916:../proyecto.c **** 		case 'd':
 917:../proyecto.c **** 			switch (txt[1]) {
 5245              		.loc 1 917 0
 5246 1cd8 10301BE5 		ldr	r3, [fp, #-16]
 5247 1cdc 013083E2 		add	r3, r3, #1
 5248 1ce0 0030D3E5 		ldrb	r3, [r3, #0]	@ zero_extendqisi2
 5249 1ce4 613043E2 		sub	r3, r3, #97
 5250 1ce8 140053E3 		cmp	r3, #20
 5251 1cec 03F19F97 		ldrls	pc, [pc, r3, asl #2]
 5252 1cf0 6C0300EA 		b	.L450
 5253              	.L206:
 5254 1cf4 481D0000 		.word	.L201
 5255 1cf8 A82A0000 		.word	.L450
 5256 1cfc A82A0000 		.word	.L450
 5257 1d00 A82A0000 		.word	.L450
 5258 1d04 581D0000 		.word	.L202
 5259 1d08 A82A0000 		.word	.L450
 5260 1d0c A82A0000 		.word	.L450
 5261 1d10 A82A0000 		.word	.L450
 5262 1d14 681D0000 		.word	.L203
 5263 1d18 A82A0000 		.word	.L450
 5264 1d1c A82A0000 		.word	.L450
 5265 1d20 A82A0000 		.word	.L450
 5266 1d24 A82A0000 		.word	.L450
 5267 1d28 A82A0000 		.word	.L450
 5268 1d2c 781D0000 		.word	.L204
 5269 1d30 A82A0000 		.word	.L450
 5270 1d34 A82A0000 		.word	.L450
 5271 1d38 A82A0000 		.word	.L450
 5272 1d3c A82A0000 		.word	.L450
 5273 1d40 A82A0000 		.word	.L450
 5274 1d44 881D0000 		.word	.L205
 5275              	.L201:
 918:../proyecto.c **** 			case 'a': *id = da; break;
 5276              		.loc 1 918 0
 5277 1d48 14301BE5 		ldr	r3, [fp, #-20]
 5278 1d4c 1D20A0E3 		mov	r2, #29
 5279 1d50 0020C3E5 		strb	r2, [r3, #0]
 5280 1d54 0F0000EA 		b	.L200
 5281              	.L202:
 919:../proyecto.c **** 			case 'e': *id = de; break;
 5282              		.loc 1 919 0
 5283 1d58 14301BE5 		ldr	r3, [fp, #-20]
 5284 1d5c 1E20A0E3 		mov	r2, #30
 5285 1d60 0020C3E5 		strb	r2, [r3, #0]
 5286 1d64 0B0000EA 		b	.L200
 5287              	.L203:
 920:../proyecto.c **** 			case 'i': *id = di; break;
 5288              		.loc 1 920 0
 5289 1d68 14301BE5 		ldr	r3, [fp, #-20]
 5290 1d6c 1F20A0E3 		mov	r2, #31
 5291 1d70 0020C3E5 		strb	r2, [r3, #0]
 5292 1d74 070000EA 		b	.L200
 5293              	.L204:
 921:../proyecto.c **** 			case 'o': *id = Do; break;
 5294              		.loc 1 921 0
 5295 1d78 14301BE5 		ldr	r3, [fp, #-20]
 5296 1d7c 2020A0E3 		mov	r2, #32
 5297 1d80 0020C3E5 		strb	r2, [r3, #0]
 5298 1d84 030000EA 		b	.L200
 5299              	.L205:
 922:../proyecto.c **** 			case 'u': *id = du; break;
 5300              		.loc 1 922 0
 5301 1d88 14301BE5 		ldr	r3, [fp, #-20]
 5302 1d8c 2120A0E3 		mov	r2, #33
 5303 1d90 0020C3E5 		strb	r2, [r3, #0]
 5304 1d94 0000A0E1 		mov	r0, r0	@ nop
 5305              	.L200:
 923:../proyecto.c **** 			}
 924:../proyecto.c **** 			break;
 5306              		.loc 1 924 0
 5307 1d98 650300EA 		b	.L172
 5308              	.L178:
 925:../proyecto.c **** 
 926:../proyecto.c **** 		case 'f':
 927:../proyecto.c **** 			switch (txt[1]) {
 5309              		.loc 1 927 0
 5310 1d9c 10301BE5 		ldr	r3, [fp, #-16]
 5311 1da0 013083E2 		add	r3, r3, #1
 5312 1da4 0030D3E5 		ldrb	r3, [r3, #0]	@ zero_extendqisi2
 5313 1da8 613043E2 		sub	r3, r3, #97
 5314 1dac 140053E3 		cmp	r3, #20
 5315 1db0 03F19F97 		ldrls	pc, [pc, r3, asl #2]
 5316 1db4 3D0300EA 		b	.L451
 5317              	.L213:
 5318 1db8 0C1E0000 		.word	.L208
 5319 1dbc B02A0000 		.word	.L451
 5320 1dc0 B02A0000 		.word	.L451
 5321 1dc4 B02A0000 		.word	.L451
 5322 1dc8 1C1E0000 		.word	.L209
 5323 1dcc B02A0000 		.word	.L451
 5324 1dd0 B02A0000 		.word	.L451
 5325 1dd4 B02A0000 		.word	.L451
 5326 1dd8 2C1E0000 		.word	.L210
 5327 1ddc B02A0000 		.word	.L451
 5328 1de0 B02A0000 		.word	.L451
 5329 1de4 B02A0000 		.word	.L451
 5330 1de8 B02A0000 		.word	.L451
 5331 1dec B02A0000 		.word	.L451
 5332 1df0 3C1E0000 		.word	.L211
 5333 1df4 B02A0000 		.word	.L451
 5334 1df8 B02A0000 		.word	.L451
 5335 1dfc B02A0000 		.word	.L451
 5336 1e00 B02A0000 		.word	.L451
 5337 1e04 B02A0000 		.word	.L451
 5338 1e08 4C1E0000 		.word	.L212
 5339              	.L208:
 928:../proyecto.c **** 			case 'a': *id = fa; break;
 5340              		.loc 1 928 0
 5341 1e0c 14301BE5 		ldr	r3, [fp, #-20]
 5342 1e10 2220A0E3 		mov	r2, #34
 5343 1e14 0020C3E5 		strb	r2, [r3, #0]
 5344 1e18 0F0000EA 		b	.L207
 5345              	.L209:
 929:../proyecto.c **** 			case 'e': *id = fe; break;
 5346              		.loc 1 929 0
 5347 1e1c 14301BE5 		ldr	r3, [fp, #-20]
 5348 1e20 2320A0E3 		mov	r2, #35
 5349 1e24 0020C3E5 		strb	r2, [r3, #0]
 5350 1e28 0B0000EA 		b	.L207
 5351              	.L210:
 930:../proyecto.c **** 			case 'i': *id = fi; break;
 5352              		.loc 1 930 0
 5353 1e2c 14301BE5 		ldr	r3, [fp, #-20]
 5354 1e30 2420A0E3 		mov	r2, #36
 5355 1e34 0020C3E5 		strb	r2, [r3, #0]
 5356 1e38 070000EA 		b	.L207
 5357              	.L211:
 931:../proyecto.c **** 			case 'o': *id = fo; break;
 5358              		.loc 1 931 0
 5359 1e3c 14301BE5 		ldr	r3, [fp, #-20]
 5360 1e40 2520A0E3 		mov	r2, #37
 5361 1e44 0020C3E5 		strb	r2, [r3, #0]
 5362 1e48 030000EA 		b	.L207
 5363              	.L212:
 932:../proyecto.c **** 			case 'u': *id = fu; break;
 5364              		.loc 1 932 0
 5365 1e4c 14301BE5 		ldr	r3, [fp, #-20]
 5366 1e50 2620A0E3 		mov	r2, #38
 5367 1e54 0020C3E5 		strb	r2, [r3, #0]
 5368 1e58 0000A0E1 		mov	r0, r0	@ nop
 5369              	.L207:
 933:../proyecto.c **** 			}
 934:../proyecto.c **** 			break;
 5370              		.loc 1 934 0
 5371 1e5c 340300EA 		b	.L172
 5372              	.L179:
 935:../proyecto.c **** 
 936:../proyecto.c **** 		case 'g':
 937:../proyecto.c **** 			switch (txt[1]) {
 5373              		.loc 1 937 0
 5374 1e60 10301BE5 		ldr	r3, [fp, #-16]
 5375 1e64 013083E2 		add	r3, r3, #1
 5376 1e68 0030D3E5 		ldrb	r3, [r3, #0]	@ zero_extendqisi2
 5377 1e6c 613043E2 		sub	r3, r3, #97
 5378 1e70 140053E3 		cmp	r3, #20
 5379 1e74 03F19F97 		ldrls	pc, [pc, r3, asl #2]
 5380 1e78 0E0300EA 		b	.L452
 5381              	.L220:
 5382 1e7c D01E0000 		.word	.L215
 5383 1e80 B82A0000 		.word	.L452
 5384 1e84 B82A0000 		.word	.L452
 5385 1e88 B82A0000 		.word	.L452
 5386 1e8c E01E0000 		.word	.L216
 5387 1e90 B82A0000 		.word	.L452
 5388 1e94 B82A0000 		.word	.L452
 5389 1e98 B82A0000 		.word	.L452
 5390 1e9c F01E0000 		.word	.L217
 5391 1ea0 B82A0000 		.word	.L452
 5392 1ea4 B82A0000 		.word	.L452
 5393 1ea8 B82A0000 		.word	.L452
 5394 1eac B82A0000 		.word	.L452
 5395 1eb0 B82A0000 		.word	.L452
 5396 1eb4 001F0000 		.word	.L218
 5397 1eb8 B82A0000 		.word	.L452
 5398 1ebc B82A0000 		.word	.L452
 5399 1ec0 B82A0000 		.word	.L452
 5400 1ec4 B82A0000 		.word	.L452
 5401 1ec8 B82A0000 		.word	.L452
 5402 1ecc 101F0000 		.word	.L219
 5403              	.L215:
 938:../proyecto.c **** 			case 'a': *id = ga; break;
 5404              		.loc 1 938 0
 5405 1ed0 14301BE5 		ldr	r3, [fp, #-20]
 5406 1ed4 2720A0E3 		mov	r2, #39
 5407 1ed8 0020C3E5 		strb	r2, [r3, #0]
 5408 1edc 0F0000EA 		b	.L214
 5409              	.L216:
 939:../proyecto.c **** 			case 'e': *id = ge; break;
 5410              		.loc 1 939 0
 5411 1ee0 14301BE5 		ldr	r3, [fp, #-20]
 5412 1ee4 2820A0E3 		mov	r2, #40
 5413 1ee8 0020C3E5 		strb	r2, [r3, #0]
 5414 1eec 0B0000EA 		b	.L214
 5415              	.L217:
 940:../proyecto.c **** 			case 'i': *id = gi; break;
 5416              		.loc 1 940 0
 5417 1ef0 14301BE5 		ldr	r3, [fp, #-20]
 5418 1ef4 2920A0E3 		mov	r2, #41
 5419 1ef8 0020C3E5 		strb	r2, [r3, #0]
 5420 1efc 070000EA 		b	.L214
 5421              	.L218:
 941:../proyecto.c **** 			case 'o': *id = go; break;
 5422              		.loc 1 941 0
 5423 1f00 14301BE5 		ldr	r3, [fp, #-20]
 5424 1f04 2A20A0E3 		mov	r2, #42
 5425 1f08 0020C3E5 		strb	r2, [r3, #0]
 5426 1f0c 030000EA 		b	.L214
 5427              	.L219:
 942:../proyecto.c **** 			case 'u': *id = gu; break;
 5428              		.loc 1 942 0
 5429 1f10 14301BE5 		ldr	r3, [fp, #-20]
 5430 1f14 2B20A0E3 		mov	r2, #43
 5431 1f18 0020C3E5 		strb	r2, [r3, #0]
 5432 1f1c 0000A0E1 		mov	r0, r0	@ nop
 5433              	.L214:
 943:../proyecto.c **** 			}
 944:../proyecto.c **** 			break;
 5434              		.loc 1 944 0
 5435 1f20 030300EA 		b	.L172
 5436              	.L180:
 945:../proyecto.c **** 
 946:../proyecto.c **** 		case 'j':
 947:../proyecto.c **** 			switch (txt[1]) {
 5437              		.loc 1 947 0
 5438 1f24 10301BE5 		ldr	r3, [fp, #-16]
 5439 1f28 013083E2 		add	r3, r3, #1
 5440 1f2c 0030D3E5 		ldrb	r3, [r3, #0]	@ zero_extendqisi2
 5441 1f30 613043E2 		sub	r3, r3, #97
 5442 1f34 140053E3 		cmp	r3, #20
 5443 1f38 03F19F97 		ldrls	pc, [pc, r3, asl #2]
 5444 1f3c DF0200EA 		b	.L453
 5445              	.L227:
 5446 1f40 941F0000 		.word	.L222
 5447 1f44 C02A0000 		.word	.L453
 5448 1f48 C02A0000 		.word	.L453
 5449 1f4c C02A0000 		.word	.L453
 5450 1f50 A41F0000 		.word	.L223
 5451 1f54 C02A0000 		.word	.L453
 5452 1f58 C02A0000 		.word	.L453
 5453 1f5c C02A0000 		.word	.L453
 5454 1f60 B41F0000 		.word	.L224
 5455 1f64 C02A0000 		.word	.L453
 5456 1f68 C02A0000 		.word	.L453
 5457 1f6c C02A0000 		.word	.L453
 5458 1f70 C02A0000 		.word	.L453
 5459 1f74 C02A0000 		.word	.L453
 5460 1f78 C41F0000 		.word	.L225
 5461 1f7c C02A0000 		.word	.L453
 5462 1f80 C02A0000 		.word	.L453
 5463 1f84 C02A0000 		.word	.L453
 5464 1f88 C02A0000 		.word	.L453
 5465 1f8c C02A0000 		.word	.L453
 5466 1f90 D41F0000 		.word	.L226
 5467              	.L222:
 948:../proyecto.c **** 			case 'a': *id = ja; break;
 5468              		.loc 1 948 0
 5469 1f94 14301BE5 		ldr	r3, [fp, #-20]
 5470 1f98 2C20A0E3 		mov	r2, #44
 5471 1f9c 0020C3E5 		strb	r2, [r3, #0]
 5472 1fa0 0F0000EA 		b	.L221
 5473              	.L223:
 949:../proyecto.c **** 			case 'e': *id = je; break;
 5474              		.loc 1 949 0
 5475 1fa4 14301BE5 		ldr	r3, [fp, #-20]
 5476 1fa8 2D20A0E3 		mov	r2, #45
 5477 1fac 0020C3E5 		strb	r2, [r3, #0]
 5478 1fb0 0B0000EA 		b	.L221
 5479              	.L224:
 950:../proyecto.c **** 			case 'i': *id = ji; break;
 5480              		.loc 1 950 0
 5481 1fb4 14301BE5 		ldr	r3, [fp, #-20]
 5482 1fb8 2E20A0E3 		mov	r2, #46
 5483 1fbc 0020C3E5 		strb	r2, [r3, #0]
 5484 1fc0 070000EA 		b	.L221
 5485              	.L225:
 951:../proyecto.c **** 			case 'o': *id = jo; break;
 5486              		.loc 1 951 0
 5487 1fc4 14301BE5 		ldr	r3, [fp, #-20]
 5488 1fc8 2F20A0E3 		mov	r2, #47
 5489 1fcc 0020C3E5 		strb	r2, [r3, #0]
 5490 1fd0 030000EA 		b	.L221
 5491              	.L226:
 952:../proyecto.c **** 			case 'u': *id = ju; break;
 5492              		.loc 1 952 0
 5493 1fd4 14301BE5 		ldr	r3, [fp, #-20]
 5494 1fd8 3020A0E3 		mov	r2, #48
 5495 1fdc 0020C3E5 		strb	r2, [r3, #0]
 5496 1fe0 0000A0E1 		mov	r0, r0	@ nop
 5497              	.L221:
 953:../proyecto.c **** 			}
 954:../proyecto.c **** 			break;
 5498              		.loc 1 954 0
 5499 1fe4 D20200EA 		b	.L172
 5500              	.L181:
 955:../proyecto.c **** 
 956:../proyecto.c **** 		case 'k':
 957:../proyecto.c **** 			switch (txt[1]) {
 5501              		.loc 1 957 0
 5502 1fe8 10301BE5 		ldr	r3, [fp, #-16]
 5503 1fec 013083E2 		add	r3, r3, #1
 5504 1ff0 0030D3E5 		ldrb	r3, [r3, #0]	@ zero_extendqisi2
 5505 1ff4 613043E2 		sub	r3, r3, #97
 5506 1ff8 140053E3 		cmp	r3, #20
 5507 1ffc 03F19F97 		ldrls	pc, [pc, r3, asl #2]
 5508 2000 B00200EA 		b	.L454
 5509              	.L234:
 5510 2004 58200000 		.word	.L229
 5511 2008 C82A0000 		.word	.L454
 5512 200c C82A0000 		.word	.L454
 5513 2010 C82A0000 		.word	.L454
 5514 2014 68200000 		.word	.L230
 5515 2018 C82A0000 		.word	.L454
 5516 201c C82A0000 		.word	.L454
 5517 2020 C82A0000 		.word	.L454
 5518 2024 78200000 		.word	.L231
 5519 2028 C82A0000 		.word	.L454
 5520 202c C82A0000 		.word	.L454
 5521 2030 C82A0000 		.word	.L454
 5522 2034 C82A0000 		.word	.L454
 5523 2038 C82A0000 		.word	.L454
 5524 203c 88200000 		.word	.L232
 5525 2040 C82A0000 		.word	.L454
 5526 2044 C82A0000 		.word	.L454
 5527 2048 C82A0000 		.word	.L454
 5528 204c C82A0000 		.word	.L454
 5529 2050 C82A0000 		.word	.L454
 5530 2054 98200000 		.word	.L233
 5531              	.L229:
 958:../proyecto.c **** 			case 'a': *id = ka; break;
 5532              		.loc 1 958 0
 5533 2058 14301BE5 		ldr	r3, [fp, #-20]
 5534 205c 3120A0E3 		mov	r2, #49
 5535 2060 0020C3E5 		strb	r2, [r3, #0]
 5536 2064 0F0000EA 		b	.L228
 5537              	.L230:
 959:../proyecto.c **** 			case 'e': *id = ke; break;
 5538              		.loc 1 959 0
 5539 2068 14301BE5 		ldr	r3, [fp, #-20]
 5540 206c 3220A0E3 		mov	r2, #50
 5541 2070 0020C3E5 		strb	r2, [r3, #0]
 5542 2074 0B0000EA 		b	.L228
 5543              	.L231:
 960:../proyecto.c **** 			case 'i': *id = ki; break;
 5544              		.loc 1 960 0
 5545 2078 14301BE5 		ldr	r3, [fp, #-20]
 5546 207c 3320A0E3 		mov	r2, #51
 5547 2080 0020C3E5 		strb	r2, [r3, #0]
 5548 2084 070000EA 		b	.L228
 5549              	.L232:
 961:../proyecto.c **** 			case 'o': *id = ko; break;
 5550              		.loc 1 961 0
 5551 2088 14301BE5 		ldr	r3, [fp, #-20]
 5552 208c 3420A0E3 		mov	r2, #52
 5553 2090 0020C3E5 		strb	r2, [r3, #0]
 5554 2094 030000EA 		b	.L228
 5555              	.L233:
 962:../proyecto.c **** 			case 'u': *id = ku; break;
 5556              		.loc 1 962 0
 5557 2098 14301BE5 		ldr	r3, [fp, #-20]
 5558 209c 3520A0E3 		mov	r2, #53
 5559 20a0 0020C3E5 		strb	r2, [r3, #0]
 5560 20a4 0000A0E1 		mov	r0, r0	@ nop
 5561              	.L228:
 963:../proyecto.c **** 			}
 964:../proyecto.c **** 			break;
 5562              		.loc 1 964 0
 5563 20a8 A10200EA 		b	.L172
 5564              	.L182:
 965:../proyecto.c **** 
 966:../proyecto.c **** 		case 'l':
 967:../proyecto.c **** 			switch (txt[1]) {
 5565              		.loc 1 967 0
 5566 20ac 10301BE5 		ldr	r3, [fp, #-16]
 5567 20b0 013083E2 		add	r3, r3, #1
 5568 20b4 0030D3E5 		ldrb	r3, [r3, #0]	@ zero_extendqisi2
 5569 20b8 613043E2 		sub	r3, r3, #97
 5570 20bc 140053E3 		cmp	r3, #20
 5571 20c0 03F19F97 		ldrls	pc, [pc, r3, asl #2]
 5572 20c4 810200EA 		b	.L455
 5573              	.L241:
 5574 20c8 1C210000 		.word	.L236
 5575 20cc D02A0000 		.word	.L455
 5576 20d0 D02A0000 		.word	.L455
 5577 20d4 D02A0000 		.word	.L455
 5578 20d8 2C210000 		.word	.L237
 5579 20dc D02A0000 		.word	.L455
 5580 20e0 D02A0000 		.word	.L455
 5581 20e4 D02A0000 		.word	.L455
 5582 20e8 3C210000 		.word	.L238
 5583 20ec D02A0000 		.word	.L455
 5584 20f0 D02A0000 		.word	.L455
 5585 20f4 D02A0000 		.word	.L455
 5586 20f8 D02A0000 		.word	.L455
 5587 20fc D02A0000 		.word	.L455
 5588 2100 4C210000 		.word	.L239
 5589 2104 D02A0000 		.word	.L455
 5590 2108 D02A0000 		.word	.L455
 5591 210c D02A0000 		.word	.L455
 5592 2110 D02A0000 		.word	.L455
 5593 2114 D02A0000 		.word	.L455
 5594 2118 5C210000 		.word	.L240
 5595              	.L236:
 968:../proyecto.c **** 			case 'a': *id = la; break;
 5596              		.loc 1 968 0
 5597 211c 14301BE5 		ldr	r3, [fp, #-20]
 5598 2120 3620A0E3 		mov	r2, #54
 5599 2124 0020C3E5 		strb	r2, [r3, #0]
 5600 2128 0F0000EA 		b	.L235
 5601              	.L237:
 969:../proyecto.c **** 			case 'e': *id = le; break;
 5602              		.loc 1 969 0
 5603 212c 14301BE5 		ldr	r3, [fp, #-20]
 5604 2130 3720A0E3 		mov	r2, #55
 5605 2134 0020C3E5 		strb	r2, [r3, #0]
 5606 2138 0B0000EA 		b	.L235
 5607              	.L238:
 970:../proyecto.c **** 			case 'i': *id = li; break;
 5608              		.loc 1 970 0
 5609 213c 14301BE5 		ldr	r3, [fp, #-20]
 5610 2140 3820A0E3 		mov	r2, #56
 5611 2144 0020C3E5 		strb	r2, [r3, #0]
 5612 2148 070000EA 		b	.L235
 5613              	.L239:
 971:../proyecto.c **** 			case 'o': *id = lo; break;
 5614              		.loc 1 971 0
 5615 214c 14301BE5 		ldr	r3, [fp, #-20]
 5616 2150 3920A0E3 		mov	r2, #57
 5617 2154 0020C3E5 		strb	r2, [r3, #0]
 5618 2158 030000EA 		b	.L235
 5619              	.L240:
 972:../proyecto.c **** 			case 'u': *id = lu; break;
 5620              		.loc 1 972 0
 5621 215c 14301BE5 		ldr	r3, [fp, #-20]
 5622 2160 3A20A0E3 		mov	r2, #58
 5623 2164 0020C3E5 		strb	r2, [r3, #0]
 5624 2168 0000A0E1 		mov	r0, r0	@ nop
 5625              	.L235:
 973:../proyecto.c **** 			}
 974:../proyecto.c **** 			break;
 5626              		.loc 1 974 0
 5627 216c 700200EA 		b	.L172
 5628              	.L183:
 975:../proyecto.c **** 
 976:../proyecto.c **** 		case 'm':
 977:../proyecto.c **** 			switch (txt[1]) {
 5629              		.loc 1 977 0
 5630 2170 10301BE5 		ldr	r3, [fp, #-16]
 5631 2174 013083E2 		add	r3, r3, #1
 5632 2178 0030D3E5 		ldrb	r3, [r3, #0]	@ zero_extendqisi2
 5633 217c 613043E2 		sub	r3, r3, #97
 5634 2180 140053E3 		cmp	r3, #20
 5635 2184 03F19F97 		ldrls	pc, [pc, r3, asl #2]
 5636 2188 520200EA 		b	.L456
 5637              	.L248:
 5638 218c E0210000 		.word	.L243
 5639 2190 D82A0000 		.word	.L456
 5640 2194 D82A0000 		.word	.L456
 5641 2198 D82A0000 		.word	.L456
 5642 219c F0210000 		.word	.L244
 5643 21a0 D82A0000 		.word	.L456
 5644 21a4 D82A0000 		.word	.L456
 5645 21a8 D82A0000 		.word	.L456
 5646 21ac 00220000 		.word	.L245
 5647 21b0 D82A0000 		.word	.L456
 5648 21b4 D82A0000 		.word	.L456
 5649 21b8 D82A0000 		.word	.L456
 5650 21bc D82A0000 		.word	.L456
 5651 21c0 D82A0000 		.word	.L456
 5652 21c4 10220000 		.word	.L246
 5653 21c8 D82A0000 		.word	.L456
 5654 21cc D82A0000 		.word	.L456
 5655 21d0 D82A0000 		.word	.L456
 5656 21d4 D82A0000 		.word	.L456
 5657 21d8 D82A0000 		.word	.L456
 5658 21dc 20220000 		.word	.L247
 5659              	.L243:
 978:../proyecto.c **** 			case 'a': *id = ma; break;
 5660              		.loc 1 978 0
 5661 21e0 14301BE5 		ldr	r3, [fp, #-20]
 5662 21e4 3B20A0E3 		mov	r2, #59
 5663 21e8 0020C3E5 		strb	r2, [r3, #0]
 5664 21ec 0F0000EA 		b	.L242
 5665              	.L244:
 979:../proyecto.c **** 			case 'e': *id = me; break;
 5666              		.loc 1 979 0
 5667 21f0 14301BE5 		ldr	r3, [fp, #-20]
 5668 21f4 3C20A0E3 		mov	r2, #60
 5669 21f8 0020C3E5 		strb	r2, [r3, #0]
 5670 21fc 0B0000EA 		b	.L242
 5671              	.L245:
 980:../proyecto.c **** 			case 'i': *id = mi; break;
 5672              		.loc 1 980 0
 5673 2200 14301BE5 		ldr	r3, [fp, #-20]
 5674 2204 3D20A0E3 		mov	r2, #61
 5675 2208 0020C3E5 		strb	r2, [r3, #0]
 5676 220c 070000EA 		b	.L242
 5677              	.L246:
 981:../proyecto.c **** 			case 'o': *id = mo; break;
 5678              		.loc 1 981 0
 5679 2210 14301BE5 		ldr	r3, [fp, #-20]
 5680 2214 3E20A0E3 		mov	r2, #62
 5681 2218 0020C3E5 		strb	r2, [r3, #0]
 5682 221c 030000EA 		b	.L242
 5683              	.L247:
 982:../proyecto.c **** 			case 'u': *id = mu; break;
 5684              		.loc 1 982 0
 5685 2220 14301BE5 		ldr	r3, [fp, #-20]
 5686 2224 3F20A0E3 		mov	r2, #63
 5687 2228 0020C3E5 		strb	r2, [r3, #0]
 5688 222c 0000A0E1 		mov	r0, r0	@ nop
 5689              	.L242:
 983:../proyecto.c **** 			}
 984:../proyecto.c **** 			break;
 5690              		.loc 1 984 0
 5691 2230 3F0200EA 		b	.L172
 5692              	.L184:
 985:../proyecto.c **** 
 986:../proyecto.c **** 		case 'n':
 987:../proyecto.c **** 			switch (txt[1]) {
 5693              		.loc 1 987 0
 5694 2234 10301BE5 		ldr	r3, [fp, #-16]
 5695 2238 013083E2 		add	r3, r3, #1
 5696 223c 0030D3E5 		ldrb	r3, [r3, #0]	@ zero_extendqisi2
 5697 2240 613043E2 		sub	r3, r3, #97
 5698 2244 140053E3 		cmp	r3, #20
 5699 2248 03F19F97 		ldrls	pc, [pc, r3, asl #2]
 5700 224c 230200EA 		b	.L457
 5701              	.L255:
 5702 2250 A4220000 		.word	.L250
 5703 2254 E02A0000 		.word	.L457
 5704 2258 E02A0000 		.word	.L457
 5705 225c E02A0000 		.word	.L457
 5706 2260 B4220000 		.word	.L251
 5707 2264 E02A0000 		.word	.L457
 5708 2268 E02A0000 		.word	.L457
 5709 226c E02A0000 		.word	.L457
 5710 2270 C4220000 		.word	.L252
 5711 2274 E02A0000 		.word	.L457
 5712 2278 E02A0000 		.word	.L457
 5713 227c E02A0000 		.word	.L457
 5714 2280 E02A0000 		.word	.L457
 5715 2284 E02A0000 		.word	.L457
 5716 2288 D4220000 		.word	.L253
 5717 228c E02A0000 		.word	.L457
 5718 2290 E02A0000 		.word	.L457
 5719 2294 E02A0000 		.word	.L457
 5720 2298 E02A0000 		.word	.L457
 5721 229c E02A0000 		.word	.L457
 5722 22a0 E4220000 		.word	.L254
 5723              	.L250:
 988:../proyecto.c **** 			case 'a': *id = na; break;
 5724              		.loc 1 988 0
 5725 22a4 14301BE5 		ldr	r3, [fp, #-20]
 5726 22a8 4020A0E3 		mov	r2, #64
 5727 22ac 0020C3E5 		strb	r2, [r3, #0]
 5728 22b0 0F0000EA 		b	.L249
 5729              	.L251:
 989:../proyecto.c **** 			case 'e': *id = ne; break;
 5730              		.loc 1 989 0
 5731 22b4 14301BE5 		ldr	r3, [fp, #-20]
 5732 22b8 4120A0E3 		mov	r2, #65
 5733 22bc 0020C3E5 		strb	r2, [r3, #0]
 5734 22c0 0B0000EA 		b	.L249
 5735              	.L252:
 990:../proyecto.c **** 			case 'i': *id = ni; break;
 5736              		.loc 1 990 0
 5737 22c4 14301BE5 		ldr	r3, [fp, #-20]
 5738 22c8 4220A0E3 		mov	r2, #66
 5739 22cc 0020C3E5 		strb	r2, [r3, #0]
 5740 22d0 070000EA 		b	.L249
 5741              	.L253:
 991:../proyecto.c **** 			case 'o': *id = no; break;
 5742              		.loc 1 991 0
 5743 22d4 14301BE5 		ldr	r3, [fp, #-20]
 5744 22d8 4320A0E3 		mov	r2, #67
 5745 22dc 0020C3E5 		strb	r2, [r3, #0]
 5746 22e0 030000EA 		b	.L249
 5747              	.L254:
 992:../proyecto.c **** 			case 'u': *id = nu; break;
 5748              		.loc 1 992 0
 5749 22e4 14301BE5 		ldr	r3, [fp, #-20]
 5750 22e8 4420A0E3 		mov	r2, #68
 5751 22ec 0020C3E5 		strb	r2, [r3, #0]
 5752 22f0 0000A0E1 		mov	r0, r0	@ nop
 5753              	.L249:
 993:../proyecto.c **** 			}
 994:../proyecto.c **** 			break;
 5754              		.loc 1 994 0
 5755 22f4 0E0200EA 		b	.L172
 5756              	.L174:
 995:../proyecto.c **** 
 996:../proyecto.c **** 		case 'N':
 997:../proyecto.c **** 			switch (txt[1]) {
 5757              		.loc 1 997 0
 5758 22f8 10301BE5 		ldr	r3, [fp, #-16]
 5759 22fc 013083E2 		add	r3, r3, #1
 5760 2300 0030D3E5 		ldrb	r3, [r3, #0]	@ zero_extendqisi2
 5761 2304 613043E2 		sub	r3, r3, #97
 5762 2308 140053E3 		cmp	r3, #20
 5763 230c 03F19F97 		ldrls	pc, [pc, r3, asl #2]
 5764 2310 F40100EA 		b	.L458
 5765              	.L262:
 5766 2314 68230000 		.word	.L257
 5767 2318 E82A0000 		.word	.L458
 5768 231c E82A0000 		.word	.L458
 5769 2320 E82A0000 		.word	.L458
 5770 2324 78230000 		.word	.L258
 5771 2328 E82A0000 		.word	.L458
 5772 232c E82A0000 		.word	.L458
 5773 2330 E82A0000 		.word	.L458
 5774 2334 88230000 		.word	.L259
 5775 2338 E82A0000 		.word	.L458
 5776 233c E82A0000 		.word	.L458
 5777 2340 E82A0000 		.word	.L458
 5778 2344 E82A0000 		.word	.L458
 5779 2348 E82A0000 		.word	.L458
 5780 234c 98230000 		.word	.L260
 5781 2350 E82A0000 		.word	.L458
 5782 2354 E82A0000 		.word	.L458
 5783 2358 E82A0000 		.word	.L458
 5784 235c E82A0000 		.word	.L458
 5785 2360 E82A0000 		.word	.L458
 5786 2364 A8230000 		.word	.L261
 5787              	.L257:
 998:../proyecto.c **** 			case 'a': *id = Na; break;
 5788              		.loc 1 998 0
 5789 2368 14301BE5 		ldr	r3, [fp, #-20]
 5790 236c 4520A0E3 		mov	r2, #69
 5791 2370 0020C3E5 		strb	r2, [r3, #0]
 5792 2374 0F0000EA 		b	.L256
 5793              	.L258:
 999:../proyecto.c **** 			case 'e': *id = Ne; break;
 5794              		.loc 1 999 0
 5795 2378 14301BE5 		ldr	r3, [fp, #-20]
 5796 237c 4620A0E3 		mov	r2, #70
 5797 2380 0020C3E5 		strb	r2, [r3, #0]
 5798 2384 0B0000EA 		b	.L256
 5799              	.L259:
1000:../proyecto.c **** 			case 'i': *id = Ni; break;
 5800              		.loc 1 1000 0
 5801 2388 14301BE5 		ldr	r3, [fp, #-20]
 5802 238c 4720A0E3 		mov	r2, #71
 5803 2390 0020C3E5 		strb	r2, [r3, #0]
 5804 2394 070000EA 		b	.L256
 5805              	.L260:
1001:../proyecto.c **** 			case 'o': *id = No; break;
 5806              		.loc 1 1001 0
 5807 2398 14301BE5 		ldr	r3, [fp, #-20]
 5808 239c 4820A0E3 		mov	r2, #72
 5809 23a0 0020C3E5 		strb	r2, [r3, #0]
 5810 23a4 030000EA 		b	.L256
 5811              	.L261:
1002:../proyecto.c **** 			case 'u': *id = Nu; break;
 5812              		.loc 1 1002 0
 5813 23a8 14301BE5 		ldr	r3, [fp, #-20]
 5814 23ac 4920A0E3 		mov	r2, #73
 5815 23b0 0020C3E5 		strb	r2, [r3, #0]
 5816 23b4 0000A0E1 		mov	r0, r0	@ nop
 5817              	.L256:
1003:../proyecto.c **** 			}
1004:../proyecto.c **** 			break;
 5818              		.loc 1 1004 0
 5819 23b8 DD0100EA 		b	.L172
 5820              	.L185:
1005:../proyecto.c **** 
1006:../proyecto.c **** 		case 'p':
1007:../proyecto.c **** 			switch (txt[1]) {
 5821              		.loc 1 1007 0
 5822 23bc 10301BE5 		ldr	r3, [fp, #-16]
 5823 23c0 013083E2 		add	r3, r3, #1
 5824 23c4 0030D3E5 		ldrb	r3, [r3, #0]	@ zero_extendqisi2
 5825 23c8 613043E2 		sub	r3, r3, #97
 5826 23cc 140053E3 		cmp	r3, #20
 5827 23d0 03F19F97 		ldrls	pc, [pc, r3, asl #2]
 5828 23d4 C50100EA 		b	.L459
 5829              	.L269:
 5830 23d8 2C240000 		.word	.L264
 5831 23dc F02A0000 		.word	.L459
 5832 23e0 F02A0000 		.word	.L459
 5833 23e4 F02A0000 		.word	.L459
 5834 23e8 3C240000 		.word	.L265
 5835 23ec F02A0000 		.word	.L459
 5836 23f0 F02A0000 		.word	.L459
 5837 23f4 F02A0000 		.word	.L459
 5838 23f8 4C240000 		.word	.L266
 5839 23fc F02A0000 		.word	.L459
 5840 2400 F02A0000 		.word	.L459
 5841 2404 F02A0000 		.word	.L459
 5842 2408 F02A0000 		.word	.L459
 5843 240c F02A0000 		.word	.L459
 5844 2410 5C240000 		.word	.L267
 5845 2414 F02A0000 		.word	.L459
 5846 2418 F02A0000 		.word	.L459
 5847 241c F02A0000 		.word	.L459
 5848 2420 F02A0000 		.word	.L459
 5849 2424 F02A0000 		.word	.L459
 5850 2428 6C240000 		.word	.L268
 5851              	.L264:
1008:../proyecto.c **** 			case 'a': *id = pa; break;
 5852              		.loc 1 1008 0
 5853 242c 14301BE5 		ldr	r3, [fp, #-20]
 5854 2430 4A20A0E3 		mov	r2, #74
 5855 2434 0020C3E5 		strb	r2, [r3, #0]
 5856 2438 0F0000EA 		b	.L263
 5857              	.L265:
1009:../proyecto.c **** 			case 'e': *id = pe; break;
 5858              		.loc 1 1009 0
 5859 243c 14301BE5 		ldr	r3, [fp, #-20]
 5860 2440 4B20A0E3 		mov	r2, #75
 5861 2444 0020C3E5 		strb	r2, [r3, #0]
 5862 2448 0B0000EA 		b	.L263
 5863              	.L266:
1010:../proyecto.c **** 			case 'i': *id = pi; break;
 5864              		.loc 1 1010 0
 5865 244c 14301BE5 		ldr	r3, [fp, #-20]
 5866 2450 4C20A0E3 		mov	r2, #76
 5867 2454 0020C3E5 		strb	r2, [r3, #0]
 5868 2458 070000EA 		b	.L263
 5869              	.L267:
1011:../proyecto.c **** 			case 'o': *id = po; break;
 5870              		.loc 1 1011 0
 5871 245c 14301BE5 		ldr	r3, [fp, #-20]
 5872 2460 4D20A0E3 		mov	r2, #77
 5873 2464 0020C3E5 		strb	r2, [r3, #0]
 5874 2468 030000EA 		b	.L263
 5875              	.L268:
1012:../proyecto.c **** 			case 'u': *id = pu; break;
 5876              		.loc 1 1012 0
 5877 246c 14301BE5 		ldr	r3, [fp, #-20]
 5878 2470 4E20A0E3 		mov	r2, #78
 5879 2474 0020C3E5 		strb	r2, [r3, #0]
 5880 2478 0000A0E1 		mov	r0, r0	@ nop
 5881              	.L263:
1013:../proyecto.c **** 			}
1014:../proyecto.c **** 			break;
 5882              		.loc 1 1014 0
 5883 247c AC0100EA 		b	.L172
 5884              	.L186:
1015:../proyecto.c **** 
1016:../proyecto.c **** 		case 'r':
1017:../proyecto.c **** 			switch (txt[1]) {
 5885              		.loc 1 1017 0
 5886 2480 10301BE5 		ldr	r3, [fp, #-16]
 5887 2484 013083E2 		add	r3, r3, #1
 5888 2488 0030D3E5 		ldrb	r3, [r3, #0]	@ zero_extendqisi2
 5889 248c 613043E2 		sub	r3, r3, #97
 5890 2490 140053E3 		cmp	r3, #20
 5891 2494 03F19F97 		ldrls	pc, [pc, r3, asl #2]
 5892 2498 960100EA 		b	.L460
 5893              	.L276:
 5894 249c F0240000 		.word	.L271
 5895 24a0 F82A0000 		.word	.L460
 5896 24a4 F82A0000 		.word	.L460
 5897 24a8 F82A0000 		.word	.L460
 5898 24ac 00250000 		.word	.L272
 5899 24b0 F82A0000 		.word	.L460
 5900 24b4 F82A0000 		.word	.L460
 5901 24b8 F82A0000 		.word	.L460
 5902 24bc 10250000 		.word	.L273
 5903 24c0 F82A0000 		.word	.L460
 5904 24c4 F82A0000 		.word	.L460
 5905 24c8 F82A0000 		.word	.L460
 5906 24cc F82A0000 		.word	.L460
 5907 24d0 F82A0000 		.word	.L460
 5908 24d4 20250000 		.word	.L274
 5909 24d8 F82A0000 		.word	.L460
 5910 24dc F82A0000 		.word	.L460
 5911 24e0 F82A0000 		.word	.L460
 5912 24e4 F82A0000 		.word	.L460
 5913 24e8 F82A0000 		.word	.L460
 5914 24ec 30250000 		.word	.L275
 5915              	.L271:
1018:../proyecto.c **** 			case 'a': *id = ra; break;
 5916              		.loc 1 1018 0
 5917 24f0 14301BE5 		ldr	r3, [fp, #-20]
 5918 24f4 4F20A0E3 		mov	r2, #79
 5919 24f8 0020C3E5 		strb	r2, [r3, #0]
 5920 24fc 0F0000EA 		b	.L270
 5921              	.L272:
1019:../proyecto.c **** 			case 'e': *id = re; break;
 5922              		.loc 1 1019 0
 5923 2500 14301BE5 		ldr	r3, [fp, #-20]
 5924 2504 5020A0E3 		mov	r2, #80
 5925 2508 0020C3E5 		strb	r2, [r3, #0]
 5926 250c 0B0000EA 		b	.L270
 5927              	.L273:
1020:../proyecto.c **** 			case 'i': *id = ri; break;
 5928              		.loc 1 1020 0
 5929 2510 14301BE5 		ldr	r3, [fp, #-20]
 5930 2514 5120A0E3 		mov	r2, #81
 5931 2518 0020C3E5 		strb	r2, [r3, #0]
 5932 251c 070000EA 		b	.L270
 5933              	.L274:
1021:../proyecto.c **** 			case 'o': *id = ro; break;
 5934              		.loc 1 1021 0
 5935 2520 14301BE5 		ldr	r3, [fp, #-20]
 5936 2524 5220A0E3 		mov	r2, #82
 5937 2528 0020C3E5 		strb	r2, [r3, #0]
 5938 252c 030000EA 		b	.L270
 5939              	.L275:
1022:../proyecto.c **** 			case 'u': *id = ru; break;
 5940              		.loc 1 1022 0
 5941 2530 14301BE5 		ldr	r3, [fp, #-20]
 5942 2534 5320A0E3 		mov	r2, #83
 5943 2538 0020C3E5 		strb	r2, [r3, #0]
 5944 253c 0000A0E1 		mov	r0, r0	@ nop
 5945              	.L270:
1023:../proyecto.c **** 			}
1024:../proyecto.c **** 			break;
 5946              		.loc 1 1024 0
 5947 2540 7B0100EA 		b	.L172
 5948              	.L175:
1025:../proyecto.c **** 
1026:../proyecto.c **** 		case 'R':
1027:../proyecto.c **** 			switch (txt[1]) {
 5949              		.loc 1 1027 0
 5950 2544 10301BE5 		ldr	r3, [fp, #-16]
 5951 2548 013083E2 		add	r3, r3, #1
 5952 254c 0030D3E5 		ldrb	r3, [r3, #0]	@ zero_extendqisi2
 5953 2550 613043E2 		sub	r3, r3, #97
 5954 2554 140053E3 		cmp	r3, #20
 5955 2558 03F19F97 		ldrls	pc, [pc, r3, asl #2]
 5956 255c 670100EA 		b	.L461
 5957              	.L283:
 5958 2560 B4250000 		.word	.L278
 5959 2564 002B0000 		.word	.L461
 5960 2568 002B0000 		.word	.L461
 5961 256c 002B0000 		.word	.L461
 5962 2570 C4250000 		.word	.L279
 5963 2574 002B0000 		.word	.L461
 5964 2578 002B0000 		.word	.L461
 5965 257c 002B0000 		.word	.L461
 5966 2580 D4250000 		.word	.L280
 5967 2584 002B0000 		.word	.L461
 5968 2588 002B0000 		.word	.L461
 5969 258c 002B0000 		.word	.L461
 5970 2590 002B0000 		.word	.L461
 5971 2594 002B0000 		.word	.L461
 5972 2598 E4250000 		.word	.L281
 5973 259c 002B0000 		.word	.L461
 5974 25a0 002B0000 		.word	.L461
 5975 25a4 002B0000 		.word	.L461
 5976 25a8 002B0000 		.word	.L461
 5977 25ac 002B0000 		.word	.L461
 5978 25b0 F4250000 		.word	.L282
 5979              	.L278:
1028:../proyecto.c **** 			case 'a': *id = Ra; break;
 5980              		.loc 1 1028 0
 5981 25b4 14301BE5 		ldr	r3, [fp, #-20]
 5982 25b8 5420A0E3 		mov	r2, #84
 5983 25bc 0020C3E5 		strb	r2, [r3, #0]
 5984 25c0 0F0000EA 		b	.L277
 5985              	.L279:
1029:../proyecto.c **** 			case 'e': *id = Re; break;
 5986              		.loc 1 1029 0
 5987 25c4 14301BE5 		ldr	r3, [fp, #-20]
 5988 25c8 5520A0E3 		mov	r2, #85
 5989 25cc 0020C3E5 		strb	r2, [r3, #0]
 5990 25d0 0B0000EA 		b	.L277
 5991              	.L280:
1030:../proyecto.c **** 			case 'i': *id = Ri; break;
 5992              		.loc 1 1030 0
 5993 25d4 14301BE5 		ldr	r3, [fp, #-20]
 5994 25d8 5620A0E3 		mov	r2, #86
 5995 25dc 0020C3E5 		strb	r2, [r3, #0]
 5996 25e0 070000EA 		b	.L277
 5997              	.L281:
1031:../proyecto.c **** 			case 'o': *id = Ro; break;
 5998              		.loc 1 1031 0
 5999 25e4 14301BE5 		ldr	r3, [fp, #-20]
 6000 25e8 5720A0E3 		mov	r2, #87
 6001 25ec 0020C3E5 		strb	r2, [r3, #0]
 6002 25f0 030000EA 		b	.L277
 6003              	.L282:
1032:../proyecto.c **** 			case 'u': *id = Ru; break;
 6004              		.loc 1 1032 0
 6005 25f4 14301BE5 		ldr	r3, [fp, #-20]
 6006 25f8 5820A0E3 		mov	r2, #88
 6007 25fc 0020C3E5 		strb	r2, [r3, #0]
 6008 2600 0000A0E1 		mov	r0, r0	@ nop
 6009              	.L277:
1033:../proyecto.c **** 			}
1034:../proyecto.c **** 			break;
 6010              		.loc 1 1034 0
 6011 2604 4A0100EA 		b	.L172
 6012              	.L187:
1035:../proyecto.c **** 
1036:../proyecto.c **** 		case 's':
1037:../proyecto.c **** 			switch (txt[1]) {
 6013              		.loc 1 1037 0
 6014 2608 10301BE5 		ldr	r3, [fp, #-16]
 6015 260c 013083E2 		add	r3, r3, #1
 6016 2610 0030D3E5 		ldrb	r3, [r3, #0]	@ zero_extendqisi2
 6017 2614 613043E2 		sub	r3, r3, #97
 6018 2618 140053E3 		cmp	r3, #20
 6019 261c 03F19F97 		ldrls	pc, [pc, r3, asl #2]
 6020 2620 380100EA 		b	.L462
 6021              	.L290:
 6022 2624 78260000 		.word	.L285
 6023 2628 082B0000 		.word	.L462
 6024 262c 082B0000 		.word	.L462
 6025 2630 082B0000 		.word	.L462
 6026 2634 88260000 		.word	.L286
 6027 2638 082B0000 		.word	.L462
 6028 263c 082B0000 		.word	.L462
 6029 2640 082B0000 		.word	.L462
 6030 2644 98260000 		.word	.L287
 6031 2648 082B0000 		.word	.L462
 6032 264c 082B0000 		.word	.L462
 6033 2650 082B0000 		.word	.L462
 6034 2654 082B0000 		.word	.L462
 6035 2658 082B0000 		.word	.L462
 6036 265c A8260000 		.word	.L288
 6037 2660 082B0000 		.word	.L462
 6038 2664 082B0000 		.word	.L462
 6039 2668 082B0000 		.word	.L462
 6040 266c 082B0000 		.word	.L462
 6041 2670 082B0000 		.word	.L462
 6042 2674 B8260000 		.word	.L289
 6043              	.L285:
1038:../proyecto.c **** 			case 'a': *id = sa; break;
 6044              		.loc 1 1038 0
 6045 2678 14301BE5 		ldr	r3, [fp, #-20]
 6046 267c 5920A0E3 		mov	r2, #89
 6047 2680 0020C3E5 		strb	r2, [r3, #0]
 6048 2684 0F0000EA 		b	.L284
 6049              	.L286:
1039:../proyecto.c **** 			case 'e': *id = se; break;
 6050              		.loc 1 1039 0
 6051 2688 14301BE5 		ldr	r3, [fp, #-20]
 6052 268c 5A20A0E3 		mov	r2, #90
 6053 2690 0020C3E5 		strb	r2, [r3, #0]
 6054 2694 0B0000EA 		b	.L284
 6055              	.L287:
1040:../proyecto.c **** 			case 'i': *id = si; break;
 6056              		.loc 1 1040 0
 6057 2698 14301BE5 		ldr	r3, [fp, #-20]
 6058 269c 5B20A0E3 		mov	r2, #91
 6059 26a0 0020C3E5 		strb	r2, [r3, #0]
 6060 26a4 070000EA 		b	.L284
 6061              	.L288:
1041:../proyecto.c **** 			case 'o': *id = so; break;
 6062              		.loc 1 1041 0
 6063 26a8 14301BE5 		ldr	r3, [fp, #-20]
 6064 26ac 5C20A0E3 		mov	r2, #92
 6065 26b0 0020C3E5 		strb	r2, [r3, #0]
 6066 26b4 030000EA 		b	.L284
 6067              	.L289:
1042:../proyecto.c **** 			case 'u': *id = su; break;
 6068              		.loc 1 1042 0
 6069 26b8 14301BE5 		ldr	r3, [fp, #-20]
 6070 26bc 5D20A0E3 		mov	r2, #93
 6071 26c0 0020C3E5 		strb	r2, [r3, #0]
 6072 26c4 0000A0E1 		mov	r0, r0	@ nop
 6073              	.L284:
1043:../proyecto.c **** 			}
1044:../proyecto.c **** 			break;
 6074              		.loc 1 1044 0
 6075 26c8 190100EA 		b	.L172
 6076              	.L188:
1045:../proyecto.c **** 
1046:../proyecto.c **** 		case 't':
1047:../proyecto.c **** 			switch (txt[1]) {
 6077              		.loc 1 1047 0
 6078 26cc 10301BE5 		ldr	r3, [fp, #-16]
 6079 26d0 013083E2 		add	r3, r3, #1
 6080 26d4 0030D3E5 		ldrb	r3, [r3, #0]	@ zero_extendqisi2
 6081 26d8 613043E2 		sub	r3, r3, #97
 6082 26dc 140053E3 		cmp	r3, #20
 6083 26e0 03F19F97 		ldrls	pc, [pc, r3, asl #2]
 6084 26e4 090100EA 		b	.L463
 6085              	.L297:
 6086 26e8 3C270000 		.word	.L292
 6087 26ec 102B0000 		.word	.L463
 6088 26f0 102B0000 		.word	.L463
 6089 26f4 102B0000 		.word	.L463
 6090 26f8 4C270000 		.word	.L293
 6091 26fc 102B0000 		.word	.L463
 6092 2700 102B0000 		.word	.L463
 6093 2704 102B0000 		.word	.L463
 6094 2708 5C270000 		.word	.L294
 6095 270c 102B0000 		.word	.L463
 6096 2710 102B0000 		.word	.L463
 6097 2714 102B0000 		.word	.L463
 6098 2718 102B0000 		.word	.L463
 6099 271c 102B0000 		.word	.L463
 6100 2720 6C270000 		.word	.L295
 6101 2724 102B0000 		.word	.L463
 6102 2728 102B0000 		.word	.L463
 6103 272c 102B0000 		.word	.L463
 6104 2730 102B0000 		.word	.L463
 6105 2734 102B0000 		.word	.L463
 6106 2738 7C270000 		.word	.L296
 6107              	.L292:
1048:../proyecto.c **** 			case 'a': *id = ta; break;
 6108              		.loc 1 1048 0
 6109 273c 14301BE5 		ldr	r3, [fp, #-20]
 6110 2740 5E20A0E3 		mov	r2, #94
 6111 2744 0020C3E5 		strb	r2, [r3, #0]
 6112 2748 0F0000EA 		b	.L291
 6113              	.L293:
1049:../proyecto.c **** 			case 'e': *id = te; break;
 6114              		.loc 1 1049 0
 6115 274c 14301BE5 		ldr	r3, [fp, #-20]
 6116 2750 5F20A0E3 		mov	r2, #95
 6117 2754 0020C3E5 		strb	r2, [r3, #0]
 6118 2758 0B0000EA 		b	.L291
 6119              	.L294:
1050:../proyecto.c **** 			case 'i': *id = ti; break;
 6120              		.loc 1 1050 0
 6121 275c 14301BE5 		ldr	r3, [fp, #-20]
 6122 2760 6020A0E3 		mov	r2, #96
 6123 2764 0020C3E5 		strb	r2, [r3, #0]
 6124 2768 070000EA 		b	.L291
 6125              	.L295:
1051:../proyecto.c **** 			case 'o': *id = to; break;
 6126              		.loc 1 1051 0
 6127 276c 14301BE5 		ldr	r3, [fp, #-20]
 6128 2770 6120A0E3 		mov	r2, #97
 6129 2774 0020C3E5 		strb	r2, [r3, #0]
 6130 2778 030000EA 		b	.L291
 6131              	.L296:
1052:../proyecto.c **** 			case 'u': *id = tu; break;
 6132              		.loc 1 1052 0
 6133 277c 14301BE5 		ldr	r3, [fp, #-20]
 6134 2780 6220A0E3 		mov	r2, #98
 6135 2784 0020C3E5 		strb	r2, [r3, #0]
 6136 2788 0000A0E1 		mov	r0, r0	@ nop
 6137              	.L291:
1053:../proyecto.c **** 			}
1054:../proyecto.c **** 			break;
 6138              		.loc 1 1054 0
 6139 278c E80000EA 		b	.L172
 6140              	.L189:
1055:../proyecto.c **** 
1056:../proyecto.c **** 		case 'x':
1057:../proyecto.c **** 			switch (txt[1]) {
 6141              		.loc 1 1057 0
 6142 2790 10301BE5 		ldr	r3, [fp, #-16]
 6143 2794 013083E2 		add	r3, r3, #1
 6144 2798 0030D3E5 		ldrb	r3, [r3, #0]	@ zero_extendqisi2
 6145 279c 613043E2 		sub	r3, r3, #97
 6146 27a0 140053E3 		cmp	r3, #20
 6147 27a4 03F19F97 		ldrls	pc, [pc, r3, asl #2]
 6148 27a8 DA0000EA 		b	.L464
 6149              	.L304:
 6150 27ac 00280000 		.word	.L299
 6151 27b0 182B0000 		.word	.L464
 6152 27b4 182B0000 		.word	.L464
 6153 27b8 182B0000 		.word	.L464
 6154 27bc 10280000 		.word	.L300
 6155 27c0 182B0000 		.word	.L464
 6156 27c4 182B0000 		.word	.L464
 6157 27c8 182B0000 		.word	.L464
 6158 27cc 20280000 		.word	.L301
 6159 27d0 182B0000 		.word	.L464
 6160 27d4 182B0000 		.word	.L464
 6161 27d8 182B0000 		.word	.L464
 6162 27dc 182B0000 		.word	.L464
 6163 27e0 182B0000 		.word	.L464
 6164 27e4 30280000 		.word	.L302
 6165 27e8 182B0000 		.word	.L464
 6166 27ec 182B0000 		.word	.L464
 6167 27f0 182B0000 		.word	.L464
 6168 27f4 182B0000 		.word	.L464
 6169 27f8 182B0000 		.word	.L464
 6170 27fc 40280000 		.word	.L303
 6171              	.L299:
1058:../proyecto.c **** 			case 'a': *id = xa; break;
 6172              		.loc 1 1058 0
 6173 2800 14301BE5 		ldr	r3, [fp, #-20]
 6174 2804 6320A0E3 		mov	r2, #99
 6175 2808 0020C3E5 		strb	r2, [r3, #0]
 6176 280c 0F0000EA 		b	.L298
 6177              	.L300:
1059:../proyecto.c **** 			case 'e': *id = xe; break;
 6178              		.loc 1 1059 0
 6179 2810 14301BE5 		ldr	r3, [fp, #-20]
 6180 2814 6420A0E3 		mov	r2, #100
 6181 2818 0020C3E5 		strb	r2, [r3, #0]
 6182 281c 0B0000EA 		b	.L298
 6183              	.L301:
1060:../proyecto.c **** 			case 'i': *id = xi; break;
 6184              		.loc 1 1060 0
 6185 2820 14301BE5 		ldr	r3, [fp, #-20]
 6186 2824 6520A0E3 		mov	r2, #101
 6187 2828 0020C3E5 		strb	r2, [r3, #0]
 6188 282c 070000EA 		b	.L298
 6189              	.L302:
1061:../proyecto.c **** 			case 'o': *id = xo; break;
 6190              		.loc 1 1061 0
 6191 2830 14301BE5 		ldr	r3, [fp, #-20]
 6192 2834 6620A0E3 		mov	r2, #102
 6193 2838 0020C3E5 		strb	r2, [r3, #0]
 6194 283c 030000EA 		b	.L298
 6195              	.L303:
1062:../proyecto.c **** 			case 'u': *id = xu; break;
 6196              		.loc 1 1062 0
 6197 2840 14301BE5 		ldr	r3, [fp, #-20]
 6198 2844 6720A0E3 		mov	r2, #103
 6199 2848 0020C3E5 		strb	r2, [r3, #0]
 6200 284c 0000A0E1 		mov	r0, r0	@ nop
 6201              	.L298:
1063:../proyecto.c **** 			}
1064:../proyecto.c **** 			break;
 6202              		.loc 1 1064 0
 6203 2850 B70000EA 		b	.L172
 6204              	.L190:
1065:../proyecto.c **** 
1066:../proyecto.c **** 		case 'y':
1067:../proyecto.c **** 			switch (txt[1]) {
 6205              		.loc 1 1067 0
 6206 2854 10301BE5 		ldr	r3, [fp, #-16]
 6207 2858 013083E2 		add	r3, r3, #1
 6208 285c 0030D3E5 		ldrb	r3, [r3, #0]	@ zero_extendqisi2
 6209 2860 613043E2 		sub	r3, r3, #97
 6210 2864 140053E3 		cmp	r3, #20
 6211 2868 03F19F97 		ldrls	pc, [pc, r3, asl #2]
 6212 286c AB0000EA 		b	.L465
 6213              	.L311:
 6214 2870 C4280000 		.word	.L306
 6215 2874 202B0000 		.word	.L465
 6216 2878 202B0000 		.word	.L465
 6217 287c 202B0000 		.word	.L465
 6218 2880 D4280000 		.word	.L307
 6219 2884 202B0000 		.word	.L465
 6220 2888 202B0000 		.word	.L465
 6221 288c 202B0000 		.word	.L465
 6222 2890 E4280000 		.word	.L308
 6223 2894 202B0000 		.word	.L465
 6224 2898 202B0000 		.word	.L465
 6225 289c 202B0000 		.word	.L465
 6226 28a0 202B0000 		.word	.L465
 6227 28a4 202B0000 		.word	.L465
 6228 28a8 F4280000 		.word	.L309
 6229 28ac 202B0000 		.word	.L465
 6230 28b0 202B0000 		.word	.L465
 6231 28b4 202B0000 		.word	.L465
 6232 28b8 202B0000 		.word	.L465
 6233 28bc 202B0000 		.word	.L465
 6234 28c0 04290000 		.word	.L310
 6235              	.L306:
1068:../proyecto.c **** 			case 'a': *id = ya; break;
 6236              		.loc 1 1068 0
 6237 28c4 14301BE5 		ldr	r3, [fp, #-20]
 6238 28c8 6820A0E3 		mov	r2, #104
 6239 28cc 0020C3E5 		strb	r2, [r3, #0]
 6240 28d0 0F0000EA 		b	.L305
 6241              	.L307:
1069:../proyecto.c **** 			case 'e': *id = ye; break;
 6242              		.loc 1 1069 0
 6243 28d4 14301BE5 		ldr	r3, [fp, #-20]
 6244 28d8 6920A0E3 		mov	r2, #105
 6245 28dc 0020C3E5 		strb	r2, [r3, #0]
 6246 28e0 0B0000EA 		b	.L305
 6247              	.L308:
1070:../proyecto.c **** 			case 'i': *id = yi; break;
 6248              		.loc 1 1070 0
 6249 28e4 14301BE5 		ldr	r3, [fp, #-20]
 6250 28e8 6A20A0E3 		mov	r2, #106
 6251 28ec 0020C3E5 		strb	r2, [r3, #0]
 6252 28f0 070000EA 		b	.L305
 6253              	.L309:
1071:../proyecto.c **** 			case 'o': *id = yo; break;
 6254              		.loc 1 1071 0
 6255 28f4 14301BE5 		ldr	r3, [fp, #-20]
 6256 28f8 6B20A0E3 		mov	r2, #107
 6257 28fc 0020C3E5 		strb	r2, [r3, #0]
 6258 2900 030000EA 		b	.L305
 6259              	.L310:
1072:../proyecto.c **** 			case 'u': *id = yu; break;
 6260              		.loc 1 1072 0
 6261 2904 14301BE5 		ldr	r3, [fp, #-20]
 6262 2908 6C20A0E3 		mov	r2, #108
 6263 290c 0020C3E5 		strb	r2, [r3, #0]
 6264 2910 0000A0E1 		mov	r0, r0	@ nop
 6265              	.L305:
1073:../proyecto.c **** 			}
1074:../proyecto.c **** 			break;
 6266              		.loc 1 1074 0
 6267 2914 860000EA 		b	.L172
 6268              	.L191:
1075:../proyecto.c **** 
1076:../proyecto.c **** 		case 'z':
1077:../proyecto.c **** 			switch (txt[1]) {
 6269              		.loc 1 1077 0
 6270 2918 10301BE5 		ldr	r3, [fp, #-16]
 6271 291c 013083E2 		add	r3, r3, #1
 6272 2920 0030D3E5 		ldrb	r3, [r3, #0]	@ zero_extendqisi2
 6273 2924 613043E2 		sub	r3, r3, #97
 6274 2928 140053E3 		cmp	r3, #20
 6275 292c 03F19F97 		ldrls	pc, [pc, r3, asl #2]
 6276 2930 7C0000EA 		b	.L466
 6277              	.L318:
 6278 2934 88290000 		.word	.L313
 6279 2938 282B0000 		.word	.L466
 6280 293c 282B0000 		.word	.L466
 6281 2940 282B0000 		.word	.L466
 6282 2944 98290000 		.word	.L314
 6283 2948 282B0000 		.word	.L466
 6284 294c 282B0000 		.word	.L466
 6285 2950 282B0000 		.word	.L466
 6286 2954 A8290000 		.word	.L315
 6287 2958 282B0000 		.word	.L466
 6288 295c 282B0000 		.word	.L466
 6289 2960 282B0000 		.word	.L466
 6290 2964 282B0000 		.word	.L466
 6291 2968 282B0000 		.word	.L466
 6292 296c B8290000 		.word	.L316
 6293 2970 282B0000 		.word	.L466
 6294 2974 282B0000 		.word	.L466
 6295 2978 282B0000 		.word	.L466
 6296 297c 282B0000 		.word	.L466
 6297 2980 282B0000 		.word	.L466
 6298 2984 C8290000 		.word	.L317
 6299              	.L313:
1078:../proyecto.c **** 			case 'a': *id = za; break;
 6300              		.loc 1 1078 0
 6301 2988 14301BE5 		ldr	r3, [fp, #-20]
 6302 298c 6D20A0E3 		mov	r2, #109
 6303 2990 0020C3E5 		strb	r2, [r3, #0]
 6304 2994 0F0000EA 		b	.L312
 6305              	.L314:
1079:../proyecto.c **** 			case 'e': *id = ze; break;
 6306              		.loc 1 1079 0
 6307 2998 14301BE5 		ldr	r3, [fp, #-20]
 6308 299c 6E20A0E3 		mov	r2, #110
 6309 29a0 0020C3E5 		strb	r2, [r3, #0]
 6310 29a4 0B0000EA 		b	.L312
 6311              	.L315:
1080:../proyecto.c **** 			case 'i': *id = zi; break;
 6312              		.loc 1 1080 0
 6313 29a8 14301BE5 		ldr	r3, [fp, #-20]
 6314 29ac 6F20A0E3 		mov	r2, #111
 6315 29b0 0020C3E5 		strb	r2, [r3, #0]
 6316 29b4 070000EA 		b	.L312
 6317              	.L316:
1081:../proyecto.c **** 			case 'o': *id = zo; break;
 6318              		.loc 1 1081 0
 6319 29b8 14301BE5 		ldr	r3, [fp, #-20]
 6320 29bc 7020A0E3 		mov	r2, #112
 6321 29c0 0020C3E5 		strb	r2, [r3, #0]
 6322 29c4 030000EA 		b	.L312
 6323              	.L317:
1082:../proyecto.c **** 			case 'u': *id = zu; break;
 6324              		.loc 1 1082 0
 6325 29c8 14301BE5 		ldr	r3, [fp, #-20]
 6326 29cc 7120A0E3 		mov	r2, #113
 6327 29d0 0020C3E5 		strb	r2, [r3, #0]
 6328 29d4 0000A0E1 		mov	r0, r0	@ nop
 6329              	.L312:
1083:../proyecto.c **** 			}
1084:../proyecto.c **** 			break;
 6330              		.loc 1 1084 0
 6331 29d8 550000EA 		b	.L172
 6332              	.L173:
1085:../proyecto.c **** 
1086:../proyecto.c **** 		case 'H':
1087:../proyecto.c **** 			switch (txt[1]) {
 6333              		.loc 1 1087 0
 6334 29dc 10301BE5 		ldr	r3, [fp, #-16]
 6335 29e0 013083E2 		add	r3, r3, #1
 6336 29e4 0030D3E5 		ldrb	r3, [r3, #0]	@ zero_extendqisi2
 6337 29e8 613043E2 		sub	r3, r3, #97
 6338 29ec 140053E3 		cmp	r3, #20
 6339 29f0 03F19F97 		ldrls	pc, [pc, r3, asl #2]
 6340 29f4 4D0000EA 		b	.L467
 6341              	.L325:
 6342 29f8 4C2A0000 		.word	.L320
 6343 29fc 302B0000 		.word	.L467
 6344 2a00 302B0000 		.word	.L467
 6345 2a04 302B0000 		.word	.L467
 6346 2a08 5C2A0000 		.word	.L321
 6347 2a0c 302B0000 		.word	.L467
 6348 2a10 302B0000 		.word	.L467
 6349 2a14 302B0000 		.word	.L467
 6350 2a18 6C2A0000 		.word	.L322
 6351 2a1c 302B0000 		.word	.L467
 6352 2a20 302B0000 		.word	.L467
 6353 2a24 302B0000 		.word	.L467
 6354 2a28 302B0000 		.word	.L467
 6355 2a2c 302B0000 		.word	.L467
 6356 2a30 7C2A0000 		.word	.L323
 6357 2a34 302B0000 		.word	.L467
 6358 2a38 302B0000 		.word	.L467
 6359 2a3c 302B0000 		.word	.L467
 6360 2a40 302B0000 		.word	.L467
 6361 2a44 302B0000 		.word	.L467
 6362 2a48 8C2A0000 		.word	.L324
 6363              	.L320:
1088:../proyecto.c **** 			case 'a': *id = Ha; break;
 6364              		.loc 1 1088 0
 6365 2a4c 14301BE5 		ldr	r3, [fp, #-20]
 6366 2a50 7220A0E3 		mov	r2, #114
 6367 2a54 0020C3E5 		strb	r2, [r3, #0]
 6368 2a58 0F0000EA 		b	.L319
 6369              	.L321:
1089:../proyecto.c **** 			case 'e': *id = He; break;
 6370              		.loc 1 1089 0
 6371 2a5c 14301BE5 		ldr	r3, [fp, #-20]
 6372 2a60 7320A0E3 		mov	r2, #115
 6373 2a64 0020C3E5 		strb	r2, [r3, #0]
 6374 2a68 0B0000EA 		b	.L319
 6375              	.L322:
1090:../proyecto.c **** 			case 'i': *id = Hi; break;
 6376              		.loc 1 1090 0
 6377 2a6c 14301BE5 		ldr	r3, [fp, #-20]
 6378 2a70 7420A0E3 		mov	r2, #116
 6379 2a74 0020C3E5 		strb	r2, [r3, #0]
 6380 2a78 070000EA 		b	.L319
 6381              	.L323:
1091:../proyecto.c **** 			case 'o': *id = Ho; break;
 6382              		.loc 1 1091 0
 6383 2a7c 14301BE5 		ldr	r3, [fp, #-20]
 6384 2a80 7520A0E3 		mov	r2, #117
 6385 2a84 0020C3E5 		strb	r2, [r3, #0]
 6386 2a88 030000EA 		b	.L319
 6387              	.L324:
1092:../proyecto.c **** 			case 'u': *id = Hu; break;
 6388              		.loc 1 1092 0
 6389 2a8c 14301BE5 		ldr	r3, [fp, #-20]
 6390 2a90 7620A0E3 		mov	r2, #118
 6391 2a94 0020C3E5 		strb	r2, [r3, #0]
 6392 2a98 0000A0E1 		mov	r0, r0	@ nop
 6393              	.L319:
1093:../proyecto.c **** 			}
1094:../proyecto.c **** 			break;
 6394              		.loc 1 1094 0
 6395 2a9c 240000EA 		b	.L172
 6396              	.L449:
 914:../proyecto.c **** 			break;
 6397              		.loc 1 914 0
 6398 2aa0 0000A0E1 		mov	r0, r0	@ nop
 6399 2aa4 220000EA 		b	.L172
 6400              	.L450:
 924:../proyecto.c **** 			break;
 6401              		.loc 1 924 0
 6402 2aa8 0000A0E1 		mov	r0, r0	@ nop
 6403 2aac 200000EA 		b	.L172
 6404              	.L451:
 934:../proyecto.c **** 			break;
 6405              		.loc 1 934 0
 6406 2ab0 0000A0E1 		mov	r0, r0	@ nop
 6407 2ab4 1E0000EA 		b	.L172
 6408              	.L452:
 944:../proyecto.c **** 			break;
 6409              		.loc 1 944 0
 6410 2ab8 0000A0E1 		mov	r0, r0	@ nop
 6411 2abc 1C0000EA 		b	.L172
 6412              	.L453:
 954:../proyecto.c **** 			break;
 6413              		.loc 1 954 0
 6414 2ac0 0000A0E1 		mov	r0, r0	@ nop
 6415 2ac4 1A0000EA 		b	.L172
 6416              	.L454:
 964:../proyecto.c **** 			break;
 6417              		.loc 1 964 0
 6418 2ac8 0000A0E1 		mov	r0, r0	@ nop
 6419 2acc 180000EA 		b	.L172
 6420              	.L455:
 974:../proyecto.c **** 			break;
 6421              		.loc 1 974 0
 6422 2ad0 0000A0E1 		mov	r0, r0	@ nop
 6423 2ad4 160000EA 		b	.L172
 6424              	.L456:
 984:../proyecto.c **** 			break;
 6425              		.loc 1 984 0
 6426 2ad8 0000A0E1 		mov	r0, r0	@ nop
 6427 2adc 140000EA 		b	.L172
 6428              	.L457:
 994:../proyecto.c **** 			break;
 6429              		.loc 1 994 0
 6430 2ae0 0000A0E1 		mov	r0, r0	@ nop
 6431 2ae4 120000EA 		b	.L172
 6432              	.L458:
1004:../proyecto.c **** 			break;
 6433              		.loc 1 1004 0
 6434 2ae8 0000A0E1 		mov	r0, r0	@ nop
 6435 2aec 100000EA 		b	.L172
 6436              	.L459:
1014:../proyecto.c **** 			break;
 6437              		.loc 1 1014 0
 6438 2af0 0000A0E1 		mov	r0, r0	@ nop
 6439 2af4 0E0000EA 		b	.L172
 6440              	.L460:
1024:../proyecto.c **** 			break;
 6441              		.loc 1 1024 0
 6442 2af8 0000A0E1 		mov	r0, r0	@ nop
 6443 2afc 0C0000EA 		b	.L172
 6444              	.L461:
1034:../proyecto.c **** 			break;
 6445              		.loc 1 1034 0
 6446 2b00 0000A0E1 		mov	r0, r0	@ nop
 6447 2b04 0A0000EA 		b	.L172
 6448              	.L462:
1044:../proyecto.c **** 			break;
 6449              		.loc 1 1044 0
 6450 2b08 0000A0E1 		mov	r0, r0	@ nop
 6451 2b0c 080000EA 		b	.L172
 6452              	.L463:
1054:../proyecto.c **** 			break;
 6453              		.loc 1 1054 0
 6454 2b10 0000A0E1 		mov	r0, r0	@ nop
 6455 2b14 060000EA 		b	.L172
 6456              	.L464:
1064:../proyecto.c **** 			break;
 6457              		.loc 1 1064 0
 6458 2b18 0000A0E1 		mov	r0, r0	@ nop
 6459 2b1c 040000EA 		b	.L172
 6460              	.L465:
1074:../proyecto.c **** 			break;
 6461              		.loc 1 1074 0
 6462 2b20 0000A0E1 		mov	r0, r0	@ nop
 6463 2b24 020000EA 		b	.L172
 6464              	.L466:
1084:../proyecto.c **** 			break;
 6465              		.loc 1 1084 0
 6466 2b28 0000A0E1 		mov	r0, r0	@ nop
 6467 2b2c 000000EA 		b	.L172
 6468              	.L467:
 6469              		.loc 1 1094 0
 6470 2b30 0000A0E1 		mov	r0, r0	@ nop
 6471              	.L172:
1095:../proyecto.c **** 		}
1096:../proyecto.c **** 		return txt + 2;
 6472              		.loc 1 1096 0
 6473 2b34 10301BE5 		ldr	r3, [fp, #-16]
 6474 2b38 023083E2 		add	r3, r3, #2
 6475 2b3c 440300EA 		b	.L157
 6476              	.L171:
1097:../proyecto.c **** 	}
1098:../proyecto.c **** 	else if (esBFGKP(txt[0]) && txt[1] == 'l' && esVocal(txt[2])) {
 6477              		.loc 1 1098 0
 6478 2b40 10301BE5 		ldr	r3, [fp, #-16]
 6479 2b44 0030D3E5 		ldrb	r3, [r3, #0]	@ zero_extendqisi2
 6480 2b48 0300A0E1 		mov	r0, r3
 6481 2b4c 04F8FFEB 		bl	esBFGKP
 6482 2b50 0030A0E1 		mov	r3, r0
 6483 2b54 000053E3 		cmp	r3, #0
 6484 2b58 2201000A 		beq	.L326
 6485              		.loc 1 1098 0 is_stmt 0 discriminator 1
 6486 2b5c 10301BE5 		ldr	r3, [fp, #-16]
 6487 2b60 013083E2 		add	r3, r3, #1
 6488 2b64 0030D3E5 		ldrb	r3, [r3, #0]	@ zero_extendqisi2
 6489 2b68 6C0053E3 		cmp	r3, #108
 6490 2b6c 1D01001A 		bne	.L326
 6491 2b70 10301BE5 		ldr	r3, [fp, #-16]
 6492 2b74 023083E2 		add	r3, r3, #2
 6493 2b78 0030D3E5 		ldrb	r3, [r3, #0]	@ zero_extendqisi2
 6494 2b7c 0300A0E1 		mov	r0, r3
 6495 2b80 9CF7FFEB 		bl	esVocal
 6496 2b84 0030A0E1 		mov	r3, r0
 6497 2b88 000053E3 		cmp	r3, #0
 6498 2b8c 1501000A 		beq	.L326
1099:../proyecto.c **** 		switch (txt[0]) {
 6499              		.loc 1 1099 0 is_stmt 1
 6500 2b90 10301BE5 		ldr	r3, [fp, #-16]
 6501 2b94 0030D3E5 		ldrb	r3, [r3, #0]	@ zero_extendqisi2
 6502 2b98 623043E2 		sub	r3, r3, #98
 6503 2b9c 0E0053E3 		cmp	r3, #14
 6504 2ba0 03F19F97 		ldrls	pc, [pc, r3, asl #2]
 6505 2ba4 0C0100EA 		b	.L327
 6506              	.L333:
 6507 2ba8 E42B0000 		.word	.L328
 6508 2bac DC2F0000 		.word	.L327
 6509 2bb0 DC2F0000 		.word	.L327
 6510 2bb4 DC2F0000 		.word	.L327
 6511 2bb8 A82C0000 		.word	.L329
 6512 2bbc 6C2D0000 		.word	.L330
 6513 2bc0 DC2F0000 		.word	.L327
 6514 2bc4 DC2F0000 		.word	.L327
 6515 2bc8 DC2F0000 		.word	.L327
 6516 2bcc 302E0000 		.word	.L331
 6517 2bd0 DC2F0000 		.word	.L327
 6518 2bd4 DC2F0000 		.word	.L327
 6519 2bd8 DC2F0000 		.word	.L327
 6520 2bdc DC2F0000 		.word	.L327
 6521 2be0 F42E0000 		.word	.L332
 6522              	.L328:
1100:../proyecto.c **** 		case 'b':
1101:../proyecto.c **** 			switch (txt[2]) {
 6523              		.loc 1 1101 0
 6524 2be4 10301BE5 		ldr	r3, [fp, #-16]
 6525 2be8 023083E2 		add	r3, r3, #2
 6526 2bec 0030D3E5 		ldrb	r3, [r3, #0]	@ zero_extendqisi2
 6527 2bf0 613043E2 		sub	r3, r3, #97
 6528 2bf4 140053E3 		cmp	r3, #20
 6529 2bf8 03F19F97 		ldrls	pc, [pc, r3, asl #2]
 6530 2bfc ED0000EA 		b	.L468
 6531              	.L340:
 6532 2c00 542C0000 		.word	.L335
 6533 2c04 B82F0000 		.word	.L468
 6534 2c08 B82F0000 		.word	.L468
 6535 2c0c B82F0000 		.word	.L468
 6536 2c10 642C0000 		.word	.L336
 6537 2c14 B82F0000 		.word	.L468
 6538 2c18 B82F0000 		.word	.L468
 6539 2c1c B82F0000 		.word	.L468
 6540 2c20 742C0000 		.word	.L337
 6541 2c24 B82F0000 		.word	.L468
 6542 2c28 B82F0000 		.word	.L468
 6543 2c2c B82F0000 		.word	.L468
 6544 2c30 B82F0000 		.word	.L468
 6545 2c34 B82F0000 		.word	.L468
 6546 2c38 842C0000 		.word	.L338
 6547 2c3c B82F0000 		.word	.L468
 6548 2c40 B82F0000 		.word	.L468
 6549 2c44 B82F0000 		.word	.L468
 6550 2c48 B82F0000 		.word	.L468
 6551 2c4c B82F0000 		.word	.L468
 6552 2c50 942C0000 		.word	.L339
 6553              	.L335:
1102:../proyecto.c **** 			case 'a': *id = bla; break;
 6554              		.loc 1 1102 0
 6555 2c54 14301BE5 		ldr	r3, [fp, #-20]
 6556 2c58 7720A0E3 		mov	r2, #119
 6557 2c5c 0020C3E5 		strb	r2, [r3, #0]
 6558 2c60 0F0000EA 		b	.L334
 6559              	.L336:
1103:../proyecto.c **** 			case 'e': *id = ble; break;
 6560              		.loc 1 1103 0
 6561 2c64 14301BE5 		ldr	r3, [fp, #-20]
 6562 2c68 7820A0E3 		mov	r2, #120
 6563 2c6c 0020C3E5 		strb	r2, [r3, #0]
 6564 2c70 0B0000EA 		b	.L334
 6565              	.L337:
1104:../proyecto.c **** 			case 'i': *id = bli; break;
 6566              		.loc 1 1104 0
 6567 2c74 14301BE5 		ldr	r3, [fp, #-20]
 6568 2c78 7920A0E3 		mov	r2, #121
 6569 2c7c 0020C3E5 		strb	r2, [r3, #0]
 6570 2c80 070000EA 		b	.L334
 6571              	.L338:
1105:../proyecto.c **** 			case 'o': *id = blo; break;
 6572              		.loc 1 1105 0
 6573 2c84 14301BE5 		ldr	r3, [fp, #-20]
 6574 2c88 7A20A0E3 		mov	r2, #122
 6575 2c8c 0020C3E5 		strb	r2, [r3, #0]
 6576 2c90 030000EA 		b	.L334
 6577              	.L339:
1106:../proyecto.c **** 			case 'u': *id = blu; break;
 6578              		.loc 1 1106 0
 6579 2c94 14301BE5 		ldr	r3, [fp, #-20]
 6580 2c98 7B20A0E3 		mov	r2, #123
 6581 2c9c 0020C3E5 		strb	r2, [r3, #0]
 6582 2ca0 0000A0E1 		mov	r0, r0	@ nop
 6583              	.L334:
1107:../proyecto.c **** 			}
1108:../proyecto.c **** 			break;
 6584              		.loc 1 1108 0
 6585 2ca4 CC0000EA 		b	.L327
 6586              	.L329:
1109:../proyecto.c **** 
1110:../proyecto.c **** 		case 'f':
1111:../proyecto.c **** 			switch (txt[2]) {
 6587              		.loc 1 1111 0
 6588 2ca8 10301BE5 		ldr	r3, [fp, #-16]
 6589 2cac 023083E2 		add	r3, r3, #2
 6590 2cb0 0030D3E5 		ldrb	r3, [r3, #0]	@ zero_extendqisi2
 6591 2cb4 613043E2 		sub	r3, r3, #97
 6592 2cb8 140053E3 		cmp	r3, #20
 6593 2cbc 03F19F97 		ldrls	pc, [pc, r3, asl #2]
 6594 2cc0 BE0000EA 		b	.L469
 6595              	.L347:
 6596 2cc4 182D0000 		.word	.L342
 6597 2cc8 C02F0000 		.word	.L469
 6598 2ccc C02F0000 		.word	.L469
 6599 2cd0 C02F0000 		.word	.L469
 6600 2cd4 282D0000 		.word	.L343
 6601 2cd8 C02F0000 		.word	.L469
 6602 2cdc C02F0000 		.word	.L469
 6603 2ce0 C02F0000 		.word	.L469
 6604 2ce4 382D0000 		.word	.L344
 6605 2ce8 C02F0000 		.word	.L469
 6606 2cec C02F0000 		.word	.L469
 6607 2cf0 C02F0000 		.word	.L469
 6608 2cf4 C02F0000 		.word	.L469
 6609 2cf8 C02F0000 		.word	.L469
 6610 2cfc 482D0000 		.word	.L345
 6611 2d00 C02F0000 		.word	.L469
 6612 2d04 C02F0000 		.word	.L469
 6613 2d08 C02F0000 		.word	.L469
 6614 2d0c C02F0000 		.word	.L469
 6615 2d10 C02F0000 		.word	.L469
 6616 2d14 582D0000 		.word	.L346
 6617              	.L342:
1112:../proyecto.c **** 			case 'a': *id = fla; break;
 6618              		.loc 1 1112 0
 6619 2d18 14301BE5 		ldr	r3, [fp, #-20]
 6620 2d1c 7E20E0E3 		mvn	r2, #126
 6621 2d20 0020C3E5 		strb	r2, [r3, #0]
 6622 2d24 0F0000EA 		b	.L341
 6623              	.L343:
1113:../proyecto.c **** 			case 'e': *id = fle; break;
 6624              		.loc 1 1113 0
 6625 2d28 14301BE5 		ldr	r3, [fp, #-20]
 6626 2d2c 7D20E0E3 		mvn	r2, #125
 6627 2d30 0020C3E5 		strb	r2, [r3, #0]
 6628 2d34 0B0000EA 		b	.L341
 6629              	.L344:
1114:../proyecto.c **** 			case 'i': *id = fli; break;
 6630              		.loc 1 1114 0
 6631 2d38 14301BE5 		ldr	r3, [fp, #-20]
 6632 2d3c 7C20E0E3 		mvn	r2, #124
 6633 2d40 0020C3E5 		strb	r2, [r3, #0]
 6634 2d44 070000EA 		b	.L341
 6635              	.L345:
1115:../proyecto.c **** 			case 'o': *id = flo; break;
 6636              		.loc 1 1115 0
 6637 2d48 14301BE5 		ldr	r3, [fp, #-20]
 6638 2d4c 7B20E0E3 		mvn	r2, #123
 6639 2d50 0020C3E5 		strb	r2, [r3, #0]
 6640 2d54 030000EA 		b	.L341
 6641              	.L346:
1116:../proyecto.c **** 			case 'u': *id = flu; break;
 6642              		.loc 1 1116 0
 6643 2d58 14301BE5 		ldr	r3, [fp, #-20]
 6644 2d5c 7A20E0E3 		mvn	r2, #122
 6645 2d60 0020C3E5 		strb	r2, [r3, #0]
 6646 2d64 0000A0E1 		mov	r0, r0	@ nop
 6647              	.L341:
1117:../proyecto.c **** 			}
1118:../proyecto.c **** 			break;
 6648              		.loc 1 1118 0
 6649 2d68 9B0000EA 		b	.L327
 6650              	.L330:
1119:../proyecto.c **** 
1120:../proyecto.c **** 		case 'g':
1121:../proyecto.c **** 			switch (txt[2]) {
 6651              		.loc 1 1121 0
 6652 2d6c 10301BE5 		ldr	r3, [fp, #-16]
 6653 2d70 023083E2 		add	r3, r3, #2
 6654 2d74 0030D3E5 		ldrb	r3, [r3, #0]	@ zero_extendqisi2
 6655 2d78 613043E2 		sub	r3, r3, #97
 6656 2d7c 140053E3 		cmp	r3, #20
 6657 2d80 03F19F97 		ldrls	pc, [pc, r3, asl #2]
 6658 2d84 8F0000EA 		b	.L470
 6659              	.L354:
 6660 2d88 DC2D0000 		.word	.L349
 6661 2d8c C82F0000 		.word	.L470
 6662 2d90 C82F0000 		.word	.L470
 6663 2d94 C82F0000 		.word	.L470
 6664 2d98 EC2D0000 		.word	.L350
 6665 2d9c C82F0000 		.word	.L470
 6666 2da0 C82F0000 		.word	.L470
 6667 2da4 C82F0000 		.word	.L470
 6668 2da8 FC2D0000 		.word	.L351
 6669 2dac C82F0000 		.word	.L470
 6670 2db0 C82F0000 		.word	.L470
 6671 2db4 C82F0000 		.word	.L470
 6672 2db8 C82F0000 		.word	.L470
 6673 2dbc C82F0000 		.word	.L470
 6674 2dc0 0C2E0000 		.word	.L352
 6675 2dc4 C82F0000 		.word	.L470
 6676 2dc8 C82F0000 		.word	.L470
 6677 2dcc C82F0000 		.word	.L470
 6678 2dd0 C82F0000 		.word	.L470
 6679 2dd4 C82F0000 		.word	.L470
 6680 2dd8 1C2E0000 		.word	.L353
 6681              	.L349:
1122:../proyecto.c **** 			case 'a': *id = gla; break;
 6682              		.loc 1 1122 0
 6683 2ddc 14301BE5 		ldr	r3, [fp, #-20]
 6684 2de0 7420E0E3 		mvn	r2, #116
 6685 2de4 0020C3E5 		strb	r2, [r3, #0]
 6686 2de8 0F0000EA 		b	.L348
 6687              	.L350:
1123:../proyecto.c **** 			case 'e': *id = gle; break;
 6688              		.loc 1 1123 0
 6689 2dec 14301BE5 		ldr	r3, [fp, #-20]
 6690 2df0 7320E0E3 		mvn	r2, #115
 6691 2df4 0020C3E5 		strb	r2, [r3, #0]
 6692 2df8 0B0000EA 		b	.L348
 6693              	.L351:
1124:../proyecto.c **** 			case 'i': *id = gli; break;
 6694              		.loc 1 1124 0
 6695 2dfc 14301BE5 		ldr	r3, [fp, #-20]
 6696 2e00 7220E0E3 		mvn	r2, #114
 6697 2e04 0020C3E5 		strb	r2, [r3, #0]
 6698 2e08 070000EA 		b	.L348
 6699              	.L352:
1125:../proyecto.c **** 			case 'o': *id = glo; break;
 6700              		.loc 1 1125 0
 6701 2e0c 14301BE5 		ldr	r3, [fp, #-20]
 6702 2e10 7120E0E3 		mvn	r2, #113
 6703 2e14 0020C3E5 		strb	r2, [r3, #0]
 6704 2e18 030000EA 		b	.L348
 6705              	.L353:
1126:../proyecto.c **** 			case 'u': *id = glu; break;
 6706              		.loc 1 1126 0
 6707 2e1c 14301BE5 		ldr	r3, [fp, #-20]
 6708 2e20 7020E0E3 		mvn	r2, #112
 6709 2e24 0020C3E5 		strb	r2, [r3, #0]
 6710 2e28 0000A0E1 		mov	r0, r0	@ nop
 6711              	.L348:
1127:../proyecto.c **** 			}
1128:../proyecto.c **** 			break;
 6712              		.loc 1 1128 0
 6713 2e2c 6A0000EA 		b	.L327
 6714              	.L331:
1129:../proyecto.c **** 
1130:../proyecto.c **** 		case 'k':
1131:../proyecto.c **** 			switch (txt[2]) {
 6715              		.loc 1 1131 0
 6716 2e30 10301BE5 		ldr	r3, [fp, #-16]
 6717 2e34 023083E2 		add	r3, r3, #2
 6718 2e38 0030D3E5 		ldrb	r3, [r3, #0]	@ zero_extendqisi2
 6719 2e3c 613043E2 		sub	r3, r3, #97
 6720 2e40 140053E3 		cmp	r3, #20
 6721 2e44 03F19F97 		ldrls	pc, [pc, r3, asl #2]
 6722 2e48 600000EA 		b	.L471
 6723              	.L361:
 6724 2e4c A02E0000 		.word	.L356
 6725 2e50 D02F0000 		.word	.L471
 6726 2e54 D02F0000 		.word	.L471
 6727 2e58 D02F0000 		.word	.L471
 6728 2e5c B02E0000 		.word	.L357
 6729 2e60 D02F0000 		.word	.L471
 6730 2e64 D02F0000 		.word	.L471
 6731 2e68 D02F0000 		.word	.L471
 6732 2e6c C02E0000 		.word	.L358
 6733 2e70 D02F0000 		.word	.L471
 6734 2e74 D02F0000 		.word	.L471
 6735 2e78 D02F0000 		.word	.L471
 6736 2e7c D02F0000 		.word	.L471
 6737 2e80 D02F0000 		.word	.L471
 6738 2e84 D02E0000 		.word	.L359
 6739 2e88 D02F0000 		.word	.L471
 6740 2e8c D02F0000 		.word	.L471
 6741 2e90 D02F0000 		.word	.L471
 6742 2e94 D02F0000 		.word	.L471
 6743 2e98 D02F0000 		.word	.L471
 6744 2e9c E02E0000 		.word	.L360
 6745              	.L356:
1132:../proyecto.c **** 			case 'a': *id = kla; break;
 6746              		.loc 1 1132 0
 6747 2ea0 14301BE5 		ldr	r3, [fp, #-20]
 6748 2ea4 6A20E0E3 		mvn	r2, #106
 6749 2ea8 0020C3E5 		strb	r2, [r3, #0]
 6750 2eac 0F0000EA 		b	.L355
 6751              	.L357:
1133:../proyecto.c **** 			case 'e': *id = kle; break;
 6752              		.loc 1 1133 0
 6753 2eb0 14301BE5 		ldr	r3, [fp, #-20]
 6754 2eb4 6920E0E3 		mvn	r2, #105
 6755 2eb8 0020C3E5 		strb	r2, [r3, #0]
 6756 2ebc 0B0000EA 		b	.L355
 6757              	.L358:
1134:../proyecto.c **** 			case 'i': *id = kli; break;
 6758              		.loc 1 1134 0
 6759 2ec0 14301BE5 		ldr	r3, [fp, #-20]
 6760 2ec4 6820E0E3 		mvn	r2, #104
 6761 2ec8 0020C3E5 		strb	r2, [r3, #0]
 6762 2ecc 070000EA 		b	.L355
 6763              	.L359:
1135:../proyecto.c **** 			case 'o': *id = klo; break;
 6764              		.loc 1 1135 0
 6765 2ed0 14301BE5 		ldr	r3, [fp, #-20]
 6766 2ed4 6720E0E3 		mvn	r2, #103
 6767 2ed8 0020C3E5 		strb	r2, [r3, #0]
 6768 2edc 030000EA 		b	.L355
 6769              	.L360:
1136:../proyecto.c **** 			case 'u': *id = klu; break;
 6770              		.loc 1 1136 0
 6771 2ee0 14301BE5 		ldr	r3, [fp, #-20]
 6772 2ee4 6620E0E3 		mvn	r2, #102
 6773 2ee8 0020C3E5 		strb	r2, [r3, #0]
 6774 2eec 0000A0E1 		mov	r0, r0	@ nop
 6775              	.L355:
1137:../proyecto.c **** 			}
1138:../proyecto.c **** 			break;
 6776              		.loc 1 1138 0
 6777 2ef0 390000EA 		b	.L327
 6778              	.L332:
1139:../proyecto.c **** 
1140:../proyecto.c **** 		case 'p':
1141:../proyecto.c **** 			switch (txt[2]) {
 6779              		.loc 1 1141 0
 6780 2ef4 10301BE5 		ldr	r3, [fp, #-16]
 6781 2ef8 023083E2 		add	r3, r3, #2
 6782 2efc 0030D3E5 		ldrb	r3, [r3, #0]	@ zero_extendqisi2
 6783 2f00 613043E2 		sub	r3, r3, #97
 6784 2f04 140053E3 		cmp	r3, #20
 6785 2f08 03F19F97 		ldrls	pc, [pc, r3, asl #2]
 6786 2f0c 310000EA 		b	.L472
 6787              	.L368:
 6788 2f10 642F0000 		.word	.L363
 6789 2f14 D82F0000 		.word	.L472
 6790 2f18 D82F0000 		.word	.L472
 6791 2f1c D82F0000 		.word	.L472
 6792 2f20 742F0000 		.word	.L364
 6793 2f24 D82F0000 		.word	.L472
 6794 2f28 D82F0000 		.word	.L472
 6795 2f2c D82F0000 		.word	.L472
 6796 2f30 842F0000 		.word	.L365
 6797 2f34 D82F0000 		.word	.L472
 6798 2f38 D82F0000 		.word	.L472
 6799 2f3c D82F0000 		.word	.L472
 6800 2f40 D82F0000 		.word	.L472
 6801 2f44 D82F0000 		.word	.L472
 6802 2f48 942F0000 		.word	.L366
 6803 2f4c D82F0000 		.word	.L472
 6804 2f50 D82F0000 		.word	.L472
 6805 2f54 D82F0000 		.word	.L472
 6806 2f58 D82F0000 		.word	.L472
 6807 2f5c D82F0000 		.word	.L472
 6808 2f60 A42F0000 		.word	.L367
 6809              	.L363:
1142:../proyecto.c **** 			case 'a': *id = pla; break;
 6810              		.loc 1 1142 0
 6811 2f64 14301BE5 		ldr	r3, [fp, #-20]
 6812 2f68 6020E0E3 		mvn	r2, #96
 6813 2f6c 0020C3E5 		strb	r2, [r3, #0]
 6814 2f70 0F0000EA 		b	.L362
 6815              	.L364:
1143:../proyecto.c **** 			case 'e': *id = ple; break;
 6816              		.loc 1 1143 0
 6817 2f74 14301BE5 		ldr	r3, [fp, #-20]
 6818 2f78 5F20E0E3 		mvn	r2, #95
 6819 2f7c 0020C3E5 		strb	r2, [r3, #0]
 6820 2f80 0B0000EA 		b	.L362
 6821              	.L365:
1144:../proyecto.c **** 			case 'i': *id = pli; break;
 6822              		.loc 1 1144 0
 6823 2f84 14301BE5 		ldr	r3, [fp, #-20]
 6824 2f88 5E20E0E3 		mvn	r2, #94
 6825 2f8c 0020C3E5 		strb	r2, [r3, #0]
 6826 2f90 070000EA 		b	.L362
 6827              	.L366:
1145:../proyecto.c **** 			case 'o': *id = plo; break;
 6828              		.loc 1 1145 0
 6829 2f94 14301BE5 		ldr	r3, [fp, #-20]
 6830 2f98 5D20E0E3 		mvn	r2, #93
 6831 2f9c 0020C3E5 		strb	r2, [r3, #0]
 6832 2fa0 030000EA 		b	.L362
 6833              	.L367:
1146:../proyecto.c **** 			case 'u': *id = plu; break;
 6834              		.loc 1 1146 0
 6835 2fa4 14301BE5 		ldr	r3, [fp, #-20]
 6836 2fa8 5C20E0E3 		mvn	r2, #92
 6837 2fac 0020C3E5 		strb	r2, [r3, #0]
 6838 2fb0 0000A0E1 		mov	r0, r0	@ nop
 6839              	.L362:
1147:../proyecto.c **** 			}
1148:../proyecto.c **** 			break;
 6840              		.loc 1 1148 0
 6841 2fb4 080000EA 		b	.L327
 6842              	.L468:
1108:../proyecto.c **** 			break;
 6843              		.loc 1 1108 0
 6844 2fb8 0000A0E1 		mov	r0, r0	@ nop
 6845 2fbc 060000EA 		b	.L327
 6846              	.L469:
1118:../proyecto.c **** 			break;
 6847              		.loc 1 1118 0
 6848 2fc0 0000A0E1 		mov	r0, r0	@ nop
 6849 2fc4 040000EA 		b	.L327
 6850              	.L470:
1128:../proyecto.c **** 			break;
 6851              		.loc 1 1128 0
 6852 2fc8 0000A0E1 		mov	r0, r0	@ nop
 6853 2fcc 020000EA 		b	.L327
 6854              	.L471:
1138:../proyecto.c **** 			break;
 6855              		.loc 1 1138 0
 6856 2fd0 0000A0E1 		mov	r0, r0	@ nop
 6857 2fd4 000000EA 		b	.L327
 6858              	.L472:
 6859              		.loc 1 1148 0
 6860 2fd8 0000A0E1 		mov	r0, r0	@ nop
 6861              	.L327:
1149:../proyecto.c **** 		}
1150:../proyecto.c **** 		return txt + 3;
 6862              		.loc 1 1150 0
 6863 2fdc 10301BE5 		ldr	r3, [fp, #-16]
 6864 2fe0 033083E2 		add	r3, r3, #3
 6865 2fe4 1A0200EA 		b	.L157
 6866              	.L326:
1151:../proyecto.c **** 	}
1152:../proyecto.c **** 	else if (esBDFGKPT(txt[0]) && txt[1] == 'r' && esVocal(txt[2])) {
 6867              		.loc 1 1152 0
 6868 2fe8 10301BE5 		ldr	r3, [fp, #-16]
 6869 2fec 0030D3E5 		ldrb	r3, [r3, #0]	@ zero_extendqisi2
 6870 2ff0 0300A0E1 		mov	r0, r3
 6871 2ff4 F0F6FFEB 		bl	esBDFGKPT
 6872 2ff8 0030A0E1 		mov	r3, r0
 6873 2ffc 000053E3 		cmp	r3, #0
 6874 3000 8C01000A 		beq	.L369
 6875              		.loc 1 1152 0 is_stmt 0 discriminator 1
 6876 3004 10301BE5 		ldr	r3, [fp, #-16]
 6877 3008 013083E2 		add	r3, r3, #1
 6878 300c 0030D3E5 		ldrb	r3, [r3, #0]	@ zero_extendqisi2
 6879 3010 720053E3 		cmp	r3, #114
 6880 3014 8701001A 		bne	.L369
 6881 3018 10301BE5 		ldr	r3, [fp, #-16]
 6882 301c 023083E2 		add	r3, r3, #2
 6883 3020 0030D3E5 		ldrb	r3, [r3, #0]	@ zero_extendqisi2
 6884 3024 0300A0E1 		mov	r0, r3
 6885 3028 72F6FFEB 		bl	esVocal
 6886 302c 0030A0E1 		mov	r3, r0
 6887 3030 000053E3 		cmp	r3, #0
 6888 3034 7F01000A 		beq	.L369
1153:../proyecto.c **** 		switch (txt[0]) {
 6889              		.loc 1 1153 0 is_stmt 1
 6890 3038 10301BE5 		ldr	r3, [fp, #-16]
 6891 303c 0030D3E5 		ldrb	r3, [r3, #0]	@ zero_extendqisi2
 6892 3040 623043E2 		sub	r3, r3, #98
 6893 3044 120053E3 		cmp	r3, #18
 6894 3048 03F19F97 		ldrls	pc, [pc, r3, asl #2]
 6895 304c 760100EA 		b	.L370
 6896              	.L378:
 6897 3050 9C300000 		.word	.L371
 6898 3054 2C360000 		.word	.L370
 6899 3058 60310000 		.word	.L372
 6900 305c 2C360000 		.word	.L370
 6901 3060 24320000 		.word	.L373
 6902 3064 E8320000 		.word	.L374
 6903 3068 2C360000 		.word	.L370
 6904 306c 2C360000 		.word	.L370
 6905 3070 2C360000 		.word	.L370
 6906 3074 AC330000 		.word	.L375
 6907 3078 2C360000 		.word	.L370
 6908 307c 2C360000 		.word	.L370
 6909 3080 2C360000 		.word	.L370
 6910 3084 2C360000 		.word	.L370
 6911 3088 70340000 		.word	.L376
 6912 308c 2C360000 		.word	.L370
 6913 3090 2C360000 		.word	.L370
 6914 3094 2C360000 		.word	.L370
 6915 3098 34350000 		.word	.L377
 6916              	.L371:
1154:../proyecto.c **** 		case 'b':
1155:../proyecto.c **** 			switch (txt[2]) {
 6917              		.loc 1 1155 0
 6918 309c 10301BE5 		ldr	r3, [fp, #-16]
 6919 30a0 023083E2 		add	r3, r3, #2
 6920 30a4 0030D3E5 		ldrb	r3, [r3, #0]	@ zero_extendqisi2
 6921 30a8 613043E2 		sub	r3, r3, #97
 6922 30ac 140053E3 		cmp	r3, #20
 6923 30b0 03F19F97 		ldrls	pc, [pc, r3, asl #2]
 6924 30b4 4F0100EA 		b	.L473
 6925              	.L385:
 6926 30b8 0C310000 		.word	.L380
 6927 30bc F8350000 		.word	.L473
 6928 30c0 F8350000 		.word	.L473
 6929 30c4 F8350000 		.word	.L473
 6930 30c8 1C310000 		.word	.L381
 6931 30cc F8350000 		.word	.L473
 6932 30d0 F8350000 		.word	.L473
 6933 30d4 F8350000 		.word	.L473
 6934 30d8 2C310000 		.word	.L382
 6935 30dc F8350000 		.word	.L473
 6936 30e0 F8350000 		.word	.L473
 6937 30e4 F8350000 		.word	.L473
 6938 30e8 F8350000 		.word	.L473
 6939 30ec F8350000 		.word	.L473
 6940 30f0 3C310000 		.word	.L383
 6941 30f4 F8350000 		.word	.L473
 6942 30f8 F8350000 		.word	.L473
 6943 30fc F8350000 		.word	.L473
 6944 3100 F8350000 		.word	.L473
 6945 3104 F8350000 		.word	.L473
 6946 3108 4C310000 		.word	.L384
 6947              	.L380:
1156:../proyecto.c **** 			case 'a': *id = bra; break;
 6948              		.loc 1 1156 0
 6949 310c 14301BE5 		ldr	r3, [fp, #-20]
 6950 3110 7C20A0E3 		mov	r2, #124
 6951 3114 0020C3E5 		strb	r2, [r3, #0]
 6952 3118 0F0000EA 		b	.L379
 6953              	.L381:
1157:../proyecto.c **** 			case 'e': *id = bre; break;
 6954              		.loc 1 1157 0
 6955 311c 14301BE5 		ldr	r3, [fp, #-20]
 6956 3120 7D20A0E3 		mov	r2, #125
 6957 3124 0020C3E5 		strb	r2, [r3, #0]
 6958 3128 0B0000EA 		b	.L379
 6959              	.L382:
1158:../proyecto.c **** 			case 'i': *id = bri; break;
 6960              		.loc 1 1158 0
 6961 312c 14301BE5 		ldr	r3, [fp, #-20]
 6962 3130 7E20A0E3 		mov	r2, #126
 6963 3134 0020C3E5 		strb	r2, [r3, #0]
 6964 3138 070000EA 		b	.L379
 6965              	.L383:
1159:../proyecto.c **** 			case 'o': *id = bro; break;
 6966              		.loc 1 1159 0
 6967 313c 14301BE5 		ldr	r3, [fp, #-20]
 6968 3140 7F20A0E3 		mov	r2, #127
 6969 3144 0020C3E5 		strb	r2, [r3, #0]
 6970 3148 030000EA 		b	.L379
 6971              	.L384:
1160:../proyecto.c **** 			case 'u': *id = bru; break;
 6972              		.loc 1 1160 0
 6973 314c 14301BE5 		ldr	r3, [fp, #-20]
 6974 3150 7F20E0E3 		mvn	r2, #127
 6975 3154 0020C3E5 		strb	r2, [r3, #0]
 6976 3158 0000A0E1 		mov	r0, r0	@ nop
 6977              	.L379:
1161:../proyecto.c **** 			}
1162:../proyecto.c **** 			break;
 6978              		.loc 1 1162 0
 6979 315c 320100EA 		b	.L370
 6980              	.L372:
1163:../proyecto.c **** 
1164:../proyecto.c **** 		case 'd':
1165:../proyecto.c **** 			switch (txt[2]) {
 6981              		.loc 1 1165 0
 6982 3160 10301BE5 		ldr	r3, [fp, #-16]
 6983 3164 023083E2 		add	r3, r3, #2
 6984 3168 0030D3E5 		ldrb	r3, [r3, #0]	@ zero_extendqisi2
 6985 316c 613043E2 		sub	r3, r3, #97
 6986 3170 140053E3 		cmp	r3, #20
 6987 3174 03F19F97 		ldrls	pc, [pc, r3, asl #2]
 6988 3178 200100EA 		b	.L474
 6989              	.L392:
 6990 317c D0310000 		.word	.L387
 6991 3180 00360000 		.word	.L474
 6992 3184 00360000 		.word	.L474
 6993 3188 00360000 		.word	.L474
 6994 318c E0310000 		.word	.L388
 6995 3190 00360000 		.word	.L474
 6996 3194 00360000 		.word	.L474
 6997 3198 00360000 		.word	.L474
 6998 319c F0310000 		.word	.L389
 6999 31a0 00360000 		.word	.L474
 7000 31a4 00360000 		.word	.L474
 7001 31a8 00360000 		.word	.L474
 7002 31ac 00360000 		.word	.L474
 7003 31b0 00360000 		.word	.L474
 7004 31b4 00320000 		.word	.L390
 7005 31b8 00360000 		.word	.L474
 7006 31bc 00360000 		.word	.L474
 7007 31c0 00360000 		.word	.L474
 7008 31c4 00360000 		.word	.L474
 7009 31c8 00360000 		.word	.L474
 7010 31cc 10320000 		.word	.L391
 7011              	.L387:
1166:../proyecto.c **** 			case 'a': *id = dra; break;
 7012              		.loc 1 1166 0
 7013 31d0 14301BE5 		ldr	r3, [fp, #-20]
 7014 31d4 5120E0E3 		mvn	r2, #81
 7015 31d8 0020C3E5 		strb	r2, [r3, #0]
 7016 31dc 0F0000EA 		b	.L386
 7017              	.L388:
1167:../proyecto.c **** 			case 'e': *id = dre; break;
 7018              		.loc 1 1167 0
 7019 31e0 14301BE5 		ldr	r3, [fp, #-20]
 7020 31e4 5020E0E3 		mvn	r2, #80
 7021 31e8 0020C3E5 		strb	r2, [r3, #0]
 7022 31ec 0B0000EA 		b	.L386
 7023              	.L389:
1168:../proyecto.c **** 			case 'i': *id = dri; break;
 7024              		.loc 1 1168 0
 7025 31f0 14301BE5 		ldr	r3, [fp, #-20]
 7026 31f4 4F20E0E3 		mvn	r2, #79
 7027 31f8 0020C3E5 		strb	r2, [r3, #0]
 7028 31fc 070000EA 		b	.L386
 7029              	.L390:
1169:../proyecto.c **** 			case 'o': *id = dro; break;
 7030              		.loc 1 1169 0
 7031 3200 14301BE5 		ldr	r3, [fp, #-20]
 7032 3204 4E20E0E3 		mvn	r2, #78
 7033 3208 0020C3E5 		strb	r2, [r3, #0]
 7034 320c 030000EA 		b	.L386
 7035              	.L391:
1170:../proyecto.c **** 			case 'u': *id = dru; break;
 7036              		.loc 1 1170 0
 7037 3210 14301BE5 		ldr	r3, [fp, #-20]
 7038 3214 4D20E0E3 		mvn	r2, #77
 7039 3218 0020C3E5 		strb	r2, [r3, #0]
 7040 321c 0000A0E1 		mov	r0, r0	@ nop
 7041              	.L386:
1171:../proyecto.c **** 			}
1172:../proyecto.c **** 			break;
 7042              		.loc 1 1172 0
 7043 3220 010100EA 		b	.L370
 7044              	.L373:
1173:../proyecto.c **** 
1174:../proyecto.c **** 
1175:../proyecto.c **** 		case 'f':
1176:../proyecto.c **** 			switch (txt[2]) {
 7045              		.loc 1 1176 0
 7046 3224 10301BE5 		ldr	r3, [fp, #-16]
 7047 3228 023083E2 		add	r3, r3, #2
 7048 322c 0030D3E5 		ldrb	r3, [r3, #0]	@ zero_extendqisi2
 7049 3230 613043E2 		sub	r3, r3, #97
 7050 3234 140053E3 		cmp	r3, #20
 7051 3238 03F19F97 		ldrls	pc, [pc, r3, asl #2]
 7052 323c F10000EA 		b	.L475
 7053              	.L399:
 7054 3240 94320000 		.word	.L394
 7055 3244 08360000 		.word	.L475
 7056 3248 08360000 		.word	.L475
 7057 324c 08360000 		.word	.L475
 7058 3250 A4320000 		.word	.L395
 7059 3254 08360000 		.word	.L475
 7060 3258 08360000 		.word	.L475
 7061 325c 08360000 		.word	.L475
 7062 3260 B4320000 		.word	.L396
 7063 3264 08360000 		.word	.L475
 7064 3268 08360000 		.word	.L475
 7065 326c 08360000 		.word	.L475
 7066 3270 08360000 		.word	.L475
 7067 3274 08360000 		.word	.L475
 7068 3278 C4320000 		.word	.L397
 7069 327c 08360000 		.word	.L475
 7070 3280 08360000 		.word	.L475
 7071 3284 08360000 		.word	.L475
 7072 3288 08360000 		.word	.L475
 7073 328c 08360000 		.word	.L475
 7074 3290 D4320000 		.word	.L398
 7075              	.L394:
1177:../proyecto.c **** 			case 'a': *id = fra; break;
 7076              		.loc 1 1177 0
 7077 3294 14301BE5 		ldr	r3, [fp, #-20]
 7078 3298 7920E0E3 		mvn	r2, #121
 7079 329c 0020C3E5 		strb	r2, [r3, #0]
 7080 32a0 0F0000EA 		b	.L393
 7081              	.L395:
1178:../proyecto.c **** 			case 'e': *id = fre; break;
 7082              		.loc 1 1178 0
 7083 32a4 14301BE5 		ldr	r3, [fp, #-20]
 7084 32a8 7820E0E3 		mvn	r2, #120
 7085 32ac 0020C3E5 		strb	r2, [r3, #0]
 7086 32b0 0B0000EA 		b	.L393
 7087              	.L396:
1179:../proyecto.c **** 			case 'i': *id = fri; break;
 7088              		.loc 1 1179 0
 7089 32b4 14301BE5 		ldr	r3, [fp, #-20]
 7090 32b8 7720E0E3 		mvn	r2, #119
 7091 32bc 0020C3E5 		strb	r2, [r3, #0]
 7092 32c0 070000EA 		b	.L393
 7093              	.L397:
1180:../proyecto.c **** 			case 'o': *id = fro; break;
 7094              		.loc 1 1180 0
 7095 32c4 14301BE5 		ldr	r3, [fp, #-20]
 7096 32c8 7620E0E3 		mvn	r2, #118
 7097 32cc 0020C3E5 		strb	r2, [r3, #0]
 7098 32d0 030000EA 		b	.L393
 7099              	.L398:
1181:../proyecto.c **** 			case 'u': *id = fru; break;
 7100              		.loc 1 1181 0
 7101 32d4 14301BE5 		ldr	r3, [fp, #-20]
 7102 32d8 7520E0E3 		mvn	r2, #117
 7103 32dc 0020C3E5 		strb	r2, [r3, #0]
 7104 32e0 0000A0E1 		mov	r0, r0	@ nop
 7105              	.L393:
1182:../proyecto.c **** 			}
1183:../proyecto.c **** 			break;
 7106              		.loc 1 1183 0
 7107 32e4 D00000EA 		b	.L370
 7108              	.L374:
1184:../proyecto.c **** 
1185:../proyecto.c **** 		case 'g':
1186:../proyecto.c **** 			switch (txt[2]) {
 7109              		.loc 1 1186 0
 7110 32e8 10301BE5 		ldr	r3, [fp, #-16]
 7111 32ec 023083E2 		add	r3, r3, #2
 7112 32f0 0030D3E5 		ldrb	r3, [r3, #0]	@ zero_extendqisi2
 7113 32f4 613043E2 		sub	r3, r3, #97
 7114 32f8 140053E3 		cmp	r3, #20
 7115 32fc 03F19F97 		ldrls	pc, [pc, r3, asl #2]
 7116 3300 C20000EA 		b	.L476
 7117              	.L406:
 7118 3304 58330000 		.word	.L401
 7119 3308 10360000 		.word	.L476
 7120 330c 10360000 		.word	.L476
 7121 3310 10360000 		.word	.L476
 7122 3314 68330000 		.word	.L402
 7123 3318 10360000 		.word	.L476
 7124 331c 10360000 		.word	.L476
 7125 3320 10360000 		.word	.L476
 7126 3324 78330000 		.word	.L403
 7127 3328 10360000 		.word	.L476
 7128 332c 10360000 		.word	.L476
 7129 3330 10360000 		.word	.L476
 7130 3334 10360000 		.word	.L476
 7131 3338 10360000 		.word	.L476
 7132 333c 88330000 		.word	.L404
 7133 3340 10360000 		.word	.L476
 7134 3344 10360000 		.word	.L476
 7135 3348 10360000 		.word	.L476
 7136 334c 10360000 		.word	.L476
 7137 3350 10360000 		.word	.L476
 7138 3354 98330000 		.word	.L405
 7139              	.L401:
1187:../proyecto.c **** 			case 'a': *id = gra; break;
 7140              		.loc 1 1187 0
 7141 3358 14301BE5 		ldr	r3, [fp, #-20]
 7142 335c 6F20E0E3 		mvn	r2, #111
 7143 3360 0020C3E5 		strb	r2, [r3, #0]
 7144 3364 0F0000EA 		b	.L400
 7145              	.L402:
1188:../proyecto.c **** 			case 'e': *id = gre; break;
 7146              		.loc 1 1188 0
 7147 3368 14301BE5 		ldr	r3, [fp, #-20]
 7148 336c 6E20E0E3 		mvn	r2, #110
 7149 3370 0020C3E5 		strb	r2, [r3, #0]
 7150 3374 0B0000EA 		b	.L400
 7151              	.L403:
1189:../proyecto.c **** 			case 'i': *id = gri; break;
 7152              		.loc 1 1189 0
 7153 3378 14301BE5 		ldr	r3, [fp, #-20]
 7154 337c 6D20E0E3 		mvn	r2, #109
 7155 3380 0020C3E5 		strb	r2, [r3, #0]
 7156 3384 070000EA 		b	.L400
 7157              	.L404:
1190:../proyecto.c **** 			case 'o': *id = gro; break;
 7158              		.loc 1 1190 0
 7159 3388 14301BE5 		ldr	r3, [fp, #-20]
 7160 338c 6C20E0E3 		mvn	r2, #108
 7161 3390 0020C3E5 		strb	r2, [r3, #0]
 7162 3394 030000EA 		b	.L400
 7163              	.L405:
1191:../proyecto.c **** 			case 'u': *id = gru; break;
 7164              		.loc 1 1191 0
 7165 3398 14301BE5 		ldr	r3, [fp, #-20]
 7166 339c 6B20E0E3 		mvn	r2, #107
 7167 33a0 0020C3E5 		strb	r2, [r3, #0]
 7168 33a4 0000A0E1 		mov	r0, r0	@ nop
 7169              	.L400:
1192:../proyecto.c **** 			}
1193:../proyecto.c **** 			break;
 7170              		.loc 1 1193 0
 7171 33a8 9F0000EA 		b	.L370
 7172              	.L375:
1194:../proyecto.c **** 
1195:../proyecto.c **** 		case 'k':
1196:../proyecto.c **** 			switch (txt[2]) {
 7173              		.loc 1 1196 0
 7174 33ac 10301BE5 		ldr	r3, [fp, #-16]
 7175 33b0 023083E2 		add	r3, r3, #2
 7176 33b4 0030D3E5 		ldrb	r3, [r3, #0]	@ zero_extendqisi2
 7177 33b8 613043E2 		sub	r3, r3, #97
 7178 33bc 140053E3 		cmp	r3, #20
 7179 33c0 03F19F97 		ldrls	pc, [pc, r3, asl #2]
 7180 33c4 930000EA 		b	.L477
 7181              	.L413:
 7182 33c8 1C340000 		.word	.L408
 7183 33cc 18360000 		.word	.L477
 7184 33d0 18360000 		.word	.L477
 7185 33d4 18360000 		.word	.L477
 7186 33d8 2C340000 		.word	.L409
 7187 33dc 18360000 		.word	.L477
 7188 33e0 18360000 		.word	.L477
 7189 33e4 18360000 		.word	.L477
 7190 33e8 3C340000 		.word	.L410
 7191 33ec 18360000 		.word	.L477
 7192 33f0 18360000 		.word	.L477
 7193 33f4 18360000 		.word	.L477
 7194 33f8 18360000 		.word	.L477
 7195 33fc 18360000 		.word	.L477
 7196 3400 4C340000 		.word	.L411
 7197 3404 18360000 		.word	.L477
 7198 3408 18360000 		.word	.L477
 7199 340c 18360000 		.word	.L477
 7200 3410 18360000 		.word	.L477
 7201 3414 18360000 		.word	.L477
 7202 3418 5C340000 		.word	.L412
 7203              	.L408:
1197:../proyecto.c **** 			case 'a': *id = kra; break;
 7204              		.loc 1 1197 0
 7205 341c 14301BE5 		ldr	r3, [fp, #-20]
 7206 3420 6520E0E3 		mvn	r2, #101
 7207 3424 0020C3E5 		strb	r2, [r3, #0]
 7208 3428 0F0000EA 		b	.L407
 7209              	.L409:
1198:../proyecto.c **** 			case 'e': *id = kre; break;
 7210              		.loc 1 1198 0
 7211 342c 14301BE5 		ldr	r3, [fp, #-20]
 7212 3430 6420E0E3 		mvn	r2, #100
 7213 3434 0020C3E5 		strb	r2, [r3, #0]
 7214 3438 0B0000EA 		b	.L407
 7215              	.L410:
1199:../proyecto.c **** 			case 'i': *id = kri; break;
 7216              		.loc 1 1199 0
 7217 343c 14301BE5 		ldr	r3, [fp, #-20]
 7218 3440 6320E0E3 		mvn	r2, #99
 7219 3444 0020C3E5 		strb	r2, [r3, #0]
 7220 3448 070000EA 		b	.L407
 7221              	.L411:
1200:../proyecto.c **** 			case 'o': *id = kro; break;
 7222              		.loc 1 1200 0
 7223 344c 14301BE5 		ldr	r3, [fp, #-20]
 7224 3450 6220E0E3 		mvn	r2, #98
 7225 3454 0020C3E5 		strb	r2, [r3, #0]
 7226 3458 030000EA 		b	.L407
 7227              	.L412:
1201:../proyecto.c **** 			case 'u': *id = kru; break;
 7228              		.loc 1 1201 0
 7229 345c 14301BE5 		ldr	r3, [fp, #-20]
 7230 3460 6120E0E3 		mvn	r2, #97
 7231 3464 0020C3E5 		strb	r2, [r3, #0]
 7232 3468 0000A0E1 		mov	r0, r0	@ nop
 7233              	.L407:
1202:../proyecto.c **** 			}
1203:../proyecto.c **** 			break;
 7234              		.loc 1 1203 0
 7235 346c 6E0000EA 		b	.L370
 7236              	.L376:
1204:../proyecto.c **** 
1205:../proyecto.c **** 		case 'p':
1206:../proyecto.c **** 			switch (txt[2]) {
 7237              		.loc 1 1206 0
 7238 3470 10301BE5 		ldr	r3, [fp, #-16]
 7239 3474 023083E2 		add	r3, r3, #2
 7240 3478 0030D3E5 		ldrb	r3, [r3, #0]	@ zero_extendqisi2
 7241 347c 613043E2 		sub	r3, r3, #97
 7242 3480 140053E3 		cmp	r3, #20
 7243 3484 03F19F97 		ldrls	pc, [pc, r3, asl #2]
 7244 3488 640000EA 		b	.L478
 7245              	.L420:
 7246 348c E0340000 		.word	.L415
 7247 3490 20360000 		.word	.L478
 7248 3494 20360000 		.word	.L478
 7249 3498 20360000 		.word	.L478
 7250 349c F0340000 		.word	.L416
 7251 34a0 20360000 		.word	.L478
 7252 34a4 20360000 		.word	.L478
 7253 34a8 20360000 		.word	.L478
 7254 34ac 00350000 		.word	.L417
 7255 34b0 20360000 		.word	.L478
 7256 34b4 20360000 		.word	.L478
 7257 34b8 20360000 		.word	.L478
 7258 34bc 20360000 		.word	.L478
 7259 34c0 20360000 		.word	.L478
 7260 34c4 10350000 		.word	.L418
 7261 34c8 20360000 		.word	.L478
 7262 34cc 20360000 		.word	.L478
 7263 34d0 20360000 		.word	.L478
 7264 34d4 20360000 		.word	.L478
 7265 34d8 20360000 		.word	.L478
 7266 34dc 20350000 		.word	.L419
 7267              	.L415:
1207:../proyecto.c **** 			case 'a': *id = pra; break;
 7268              		.loc 1 1207 0
 7269 34e0 14301BE5 		ldr	r3, [fp, #-20]
 7270 34e4 5B20E0E3 		mvn	r2, #91
 7271 34e8 0020C3E5 		strb	r2, [r3, #0]
 7272 34ec 0F0000EA 		b	.L414
 7273              	.L416:
1208:../proyecto.c **** 			case 'e': *id = pre; break;
 7274              		.loc 1 1208 0
 7275 34f0 14301BE5 		ldr	r3, [fp, #-20]
 7276 34f4 5A20E0E3 		mvn	r2, #90
 7277 34f8 0020C3E5 		strb	r2, [r3, #0]
 7278 34fc 0B0000EA 		b	.L414
 7279              	.L417:
1209:../proyecto.c **** 			case 'i': *id = pri; break;
 7280              		.loc 1 1209 0
 7281 3500 14301BE5 		ldr	r3, [fp, #-20]
 7282 3504 5920E0E3 		mvn	r2, #89
 7283 3508 0020C3E5 		strb	r2, [r3, #0]
 7284 350c 070000EA 		b	.L414
 7285              	.L418:
1210:../proyecto.c **** 			case 'o': *id = pro; break;
 7286              		.loc 1 1210 0
 7287 3510 14301BE5 		ldr	r3, [fp, #-20]
 7288 3514 5820E0E3 		mvn	r2, #88
 7289 3518 0020C3E5 		strb	r2, [r3, #0]
 7290 351c 030000EA 		b	.L414
 7291              	.L419:
1211:../proyecto.c **** 			case 'u': *id = pru; break;
 7292              		.loc 1 1211 0
 7293 3520 14301BE5 		ldr	r3, [fp, #-20]
 7294 3524 5720E0E3 		mvn	r2, #87
 7295 3528 0020C3E5 		strb	r2, [r3, #0]
 7296 352c 0000A0E1 		mov	r0, r0	@ nop
 7297              	.L414:
1212:../proyecto.c **** 			}
1213:../proyecto.c **** 			break;
 7298              		.loc 1 1213 0
 7299 3530 3D0000EA 		b	.L370
 7300              	.L377:
1214:../proyecto.c **** 
1215:../proyecto.c **** 		case 't':
1216:../proyecto.c **** 			switch (txt[2]) {
 7301              		.loc 1 1216 0
 7302 3534 10301BE5 		ldr	r3, [fp, #-16]
 7303 3538 023083E2 		add	r3, r3, #2
 7304 353c 0030D3E5 		ldrb	r3, [r3, #0]	@ zero_extendqisi2
 7305 3540 613043E2 		sub	r3, r3, #97
 7306 3544 140053E3 		cmp	r3, #20
 7307 3548 03F19F97 		ldrls	pc, [pc, r3, asl #2]
 7308 354c 350000EA 		b	.L479
 7309              	.L427:
 7310 3550 A4350000 		.word	.L422
 7311 3554 28360000 		.word	.L479
 7312 3558 28360000 		.word	.L479
 7313 355c 28360000 		.word	.L479
 7314 3560 B4350000 		.word	.L423
 7315 3564 28360000 		.word	.L479
 7316 3568 28360000 		.word	.L479
 7317 356c 28360000 		.word	.L479
 7318 3570 C4350000 		.word	.L424
 7319 3574 28360000 		.word	.L479
 7320 3578 28360000 		.word	.L479
 7321 357c 28360000 		.word	.L479
 7322 3580 28360000 		.word	.L479
 7323 3584 28360000 		.word	.L479
 7324 3588 D4350000 		.word	.L425
 7325 358c 28360000 		.word	.L479
 7326 3590 28360000 		.word	.L479
 7327 3594 28360000 		.word	.L479
 7328 3598 28360000 		.word	.L479
 7329 359c 28360000 		.word	.L479
 7330 35a0 E4350000 		.word	.L426
 7331              	.L422:
1217:../proyecto.c **** 			case 'a': *id = tra; break;
 7332              		.loc 1 1217 0
 7333 35a4 14301BE5 		ldr	r3, [fp, #-20]
 7334 35a8 5620E0E3 		mvn	r2, #86
 7335 35ac 0020C3E5 		strb	r2, [r3, #0]
 7336 35b0 0F0000EA 		b	.L421
 7337              	.L423:
1218:../proyecto.c **** 			case 'e': *id = tre; break;
 7338              		.loc 1 1218 0
 7339 35b4 14301BE5 		ldr	r3, [fp, #-20]
 7340 35b8 5520E0E3 		mvn	r2, #85
 7341 35bc 0020C3E5 		strb	r2, [r3, #0]
 7342 35c0 0B0000EA 		b	.L421
 7343              	.L424:
1219:../proyecto.c **** 			case 'i': *id = tri; break;
 7344              		.loc 1 1219 0
 7345 35c4 14301BE5 		ldr	r3, [fp, #-20]
 7346 35c8 5420E0E3 		mvn	r2, #84
 7347 35cc 0020C3E5 		strb	r2, [r3, #0]
 7348 35d0 070000EA 		b	.L421
 7349              	.L425:
1220:../proyecto.c **** 			case 'o': *id = tro; break;
 7350              		.loc 1 1220 0
 7351 35d4 14301BE5 		ldr	r3, [fp, #-20]
 7352 35d8 5320E0E3 		mvn	r2, #83
 7353 35dc 0020C3E5 		strb	r2, [r3, #0]
 7354 35e0 030000EA 		b	.L421
 7355              	.L426:
1221:../proyecto.c **** 			case 'u': *id = tru; break;
 7356              		.loc 1 1221 0
 7357 35e4 14301BE5 		ldr	r3, [fp, #-20]
 7358 35e8 5220E0E3 		mvn	r2, #82
 7359 35ec 0020C3E5 		strb	r2, [r3, #0]
 7360 35f0 0000A0E1 		mov	r0, r0	@ nop
 7361              	.L421:
1222:../proyecto.c **** 			}
1223:../proyecto.c **** 			break;
 7362              		.loc 1 1223 0
 7363 35f4 0C0000EA 		b	.L370
 7364              	.L473:
1162:../proyecto.c **** 			break;
 7365              		.loc 1 1162 0
 7366 35f8 0000A0E1 		mov	r0, r0	@ nop
 7367 35fc 0A0000EA 		b	.L370
 7368              	.L474:
1172:../proyecto.c **** 			break;
 7369              		.loc 1 1172 0
 7370 3600 0000A0E1 		mov	r0, r0	@ nop
 7371 3604 080000EA 		b	.L370
 7372              	.L475:
1183:../proyecto.c **** 			break;
 7373              		.loc 1 1183 0
 7374 3608 0000A0E1 		mov	r0, r0	@ nop
 7375 360c 060000EA 		b	.L370
 7376              	.L476:
1193:../proyecto.c **** 			break;
 7377              		.loc 1 1193 0
 7378 3610 0000A0E1 		mov	r0, r0	@ nop
 7379 3614 040000EA 		b	.L370
 7380              	.L477:
1203:../proyecto.c **** 			break;
 7381              		.loc 1 1203 0
 7382 3618 0000A0E1 		mov	r0, r0	@ nop
 7383 361c 020000EA 		b	.L370
 7384              	.L478:
1213:../proyecto.c **** 			break;
 7385              		.loc 1 1213 0
 7386 3620 0000A0E1 		mov	r0, r0	@ nop
 7387 3624 000000EA 		b	.L370
 7388              	.L479:
 7389              		.loc 1 1223 0
 7390 3628 0000A0E1 		mov	r0, r0	@ nop
 7391              	.L370:
1224:../proyecto.c **** 		}
1225:../proyecto.c **** 		return txt + 3;
 7392              		.loc 1 1225 0
 7393 362c 10301BE5 		ldr	r3, [fp, #-16]
 7394 3630 033083E2 		add	r3, r3, #3
 7395 3634 860000EA 		b	.L157
 7396              	.L369:
1226:../proyecto.c **** 	}
1227:../proyecto.c **** 	else {
1228:../proyecto.c **** 		switch (txt[0]) {
 7397              		.loc 1 1228 0
 7398 3638 10301BE5 		ldr	r3, [fp, #-16]
 7399 363c 0030D3E5 		ldrb	r3, [r3, #0]	@ zero_extendqisi2
 7400 3640 483043E2 		sub	r3, r3, #72
 7401 3644 320053E3 		cmp	r3, #50
 7402 3648 03F19F97 		ldrls	pc, [pc, r3, asl #2]
 7403 364c 7E0000EA 		b	.L428
 7404              	.L448:
 7405 3650 3C380000 		.word	.L429
 7406 3654 4C380000 		.word	.L428
 7407 3658 4C380000 		.word	.L428
 7408 365c 4C380000 		.word	.L428
 7409 3660 4C380000 		.word	.L428
 7410 3664 4C380000 		.word	.L428
 7411 3668 AC370000 		.word	.L430
 7412 366c 4C380000 		.word	.L428
 7413 3670 4C380000 		.word	.L428
 7414 3674 4C380000 		.word	.L428
 7415 3678 DC370000 		.word	.L431
 7416 367c 4C380000 		.word	.L428
 7417 3680 4C380000 		.word	.L428
 7418 3684 4C380000 		.word	.L428
 7419 3688 4C380000 		.word	.L428
 7420 368c 4C380000 		.word	.L428
 7421 3690 4C380000 		.word	.L428
 7422 3694 4C380000 		.word	.L428
 7423 3698 4C380000 		.word	.L428
 7424 369c 4C380000 		.word	.L428
 7425 36a0 4C380000 		.word	.L428
 7426 36a4 4C380000 		.word	.L428
 7427 36a8 4C380000 		.word	.L428
 7428 36ac 4C380000 		.word	.L428
 7429 36b0 4C380000 		.word	.L428
 7430 36b4 4C380000 		.word	.L428
 7431 36b8 1C370000 		.word	.L432
 7432 36bc 4C380000 		.word	.L428
 7433 36c0 2C370000 		.word	.L433
 7434 36c4 4C380000 		.word	.L428
 7435 36c8 3C370000 		.word	.L434
 7436 36cc 4C370000 		.word	.L435
 7437 36d0 4C380000 		.word	.L428
 7438 36d4 4C380000 		.word	.L428
 7439 36d8 5C370000 		.word	.L436
 7440 36dc 6C370000 		.word	.L437
 7441 36e0 7C370000 		.word	.L438
 7442 36e4 8C370000 		.word	.L439
 7443 36e8 9C370000 		.word	.L440
 7444 36ec 4C380000 		.word	.L428
 7445 36f0 BC370000 		.word	.L441
 7446 36f4 4C380000 		.word	.L428
 7447 36f8 CC370000 		.word	.L442
 7448 36fc EC370000 		.word	.L443
 7449 3700 FC370000 		.word	.L444
 7450 3704 4C380000 		.word	.L428
 7451 3708 4C380000 		.word	.L428
 7452 370c 4C380000 		.word	.L428
 7453 3710 0C380000 		.word	.L445
 7454 3714 1C380000 		.word	.L446
 7455 3718 2C380000 		.word	.L447
 7456              	.L432:
1229:../proyecto.c **** 		case 'b': *id = b; break;
 7457              		.loc 1 1229 0
 7458 371c 14301BE5 		ldr	r3, [fp, #-20]
 7459 3720 0520A0E3 		mov	r2, #5
 7460 3724 0020C3E5 		strb	r2, [r3, #0]
 7461 3728 470000EA 		b	.L428
 7462              	.L433:
1230:../proyecto.c **** 		case 'd': *id = d; break;
 7463              		.loc 1 1230 0
 7464 372c 14301BE5 		ldr	r3, [fp, #-20]
 7465 3730 0620A0E3 		mov	r2, #6
 7466 3734 0020C3E5 		strb	r2, [r3, #0]
 7467 3738 430000EA 		b	.L428
 7468              	.L434:
1231:../proyecto.c **** 		case 'f': *id = f; break;
 7469              		.loc 1 1231 0
 7470 373c 14301BE5 		ldr	r3, [fp, #-20]
 7471 3740 0720A0E3 		mov	r2, #7
 7472 3744 0020C3E5 		strb	r2, [r3, #0]
 7473 3748 3F0000EA 		b	.L428
 7474              	.L435:
1232:../proyecto.c **** 		case 'g': *id = g; break;
 7475              		.loc 1 1232 0
 7476 374c 14301BE5 		ldr	r3, [fp, #-20]
 7477 3750 0820A0E3 		mov	r2, #8
 7478 3754 0020C3E5 		strb	r2, [r3, #0]
 7479 3758 3B0000EA 		b	.L428
 7480              	.L436:
1233:../proyecto.c **** 		case 'j': *id = j; break;
 7481              		.loc 1 1233 0
 7482 375c 14301BE5 		ldr	r3, [fp, #-20]
 7483 3760 0920A0E3 		mov	r2, #9
 7484 3764 0020C3E5 		strb	r2, [r3, #0]
 7485 3768 370000EA 		b	.L428
 7486              	.L437:
1234:../proyecto.c **** 		case 'k': *id = k; break;
 7487              		.loc 1 1234 0
 7488 376c 14301BE5 		ldr	r3, [fp, #-20]
 7489 3770 0A20A0E3 		mov	r2, #10
 7490 3774 0020C3E5 		strb	r2, [r3, #0]
 7491 3778 330000EA 		b	.L428
 7492              	.L438:
1235:../proyecto.c **** 		case 'l': *id = l; break;
 7493              		.loc 1 1235 0
 7494 377c 14301BE5 		ldr	r3, [fp, #-20]
 7495 3780 0B20A0E3 		mov	r2, #11
 7496 3784 0020C3E5 		strb	r2, [r3, #0]
 7497 3788 2F0000EA 		b	.L428
 7498              	.L439:
1236:../proyecto.c **** 		case 'm': *id = m; break;
 7499              		.loc 1 1236 0
 7500 378c 14301BE5 		ldr	r3, [fp, #-20]
 7501 3790 0C20A0E3 		mov	r2, #12
 7502 3794 0020C3E5 		strb	r2, [r3, #0]
 7503 3798 2B0000EA 		b	.L428
 7504              	.L440:
1237:../proyecto.c **** 		case 'n': *id = n; break;
 7505              		.loc 1 1237 0
 7506 379c 14301BE5 		ldr	r3, [fp, #-20]
 7507 37a0 0D20A0E3 		mov	r2, #13
 7508 37a4 0020C3E5 		strb	r2, [r3, #0]
 7509 37a8 270000EA 		b	.L428
 7510              	.L430:
1238:../proyecto.c **** 		case 'N': *id = N; break;
 7511              		.loc 1 1238 0
 7512 37ac 14301BE5 		ldr	r3, [fp, #-20]
 7513 37b0 0E20A0E3 		mov	r2, #14
 7514 37b4 0020C3E5 		strb	r2, [r3, #0]
 7515 37b8 230000EA 		b	.L428
 7516              	.L441:
1239:../proyecto.c **** 		case 'p': *id = p; break;
 7517              		.loc 1 1239 0
 7518 37bc 14301BE5 		ldr	r3, [fp, #-20]
 7519 37c0 0F20A0E3 		mov	r2, #15
 7520 37c4 0020C3E5 		strb	r2, [r3, #0]
 7521 37c8 1F0000EA 		b	.L428
 7522              	.L442:
1240:../proyecto.c **** 		case 'r': *id = r; break;
 7523              		.loc 1 1240 0
 7524 37cc 14301BE5 		ldr	r3, [fp, #-20]
 7525 37d0 1020A0E3 		mov	r2, #16
 7526 37d4 0020C3E5 		strb	r2, [r3, #0]
 7527 37d8 1B0000EA 		b	.L428
 7528              	.L431:
1241:../proyecto.c **** 		case 'R': *id = R; break;
 7529              		.loc 1 1241 0
 7530 37dc 14301BE5 		ldr	r3, [fp, #-20]
 7531 37e0 1120A0E3 		mov	r2, #17
 7532 37e4 0020C3E5 		strb	r2, [r3, #0]
 7533 37e8 170000EA 		b	.L428
 7534              	.L443:
1242:../proyecto.c **** 		case 's': *id = s; break;
 7535              		.loc 1 1242 0
 7536 37ec 14301BE5 		ldr	r3, [fp, #-20]
 7537 37f0 1220A0E3 		mov	r2, #18
 7538 37f4 0020C3E5 		strb	r2, [r3, #0]
 7539 37f8 130000EA 		b	.L428
 7540              	.L444:
1243:../proyecto.c **** 		case 't': *id = t; break;
 7541              		.loc 1 1243 0
 7542 37fc 14301BE5 		ldr	r3, [fp, #-20]
 7543 3800 1320A0E3 		mov	r2, #19
 7544 3804 0020C3E5 		strb	r2, [r3, #0]
 7545 3808 0F0000EA 		b	.L428
 7546              	.L445:
1244:../proyecto.c **** 		case 'x': *id = x; break;
 7547              		.loc 1 1244 0
 7548 380c 14301BE5 		ldr	r3, [fp, #-20]
 7549 3810 1420A0E3 		mov	r2, #20
 7550 3814 0020C3E5 		strb	r2, [r3, #0]
 7551 3818 0B0000EA 		b	.L428
 7552              	.L446:
1245:../proyecto.c **** 		case 'y': *id = y; break;
 7553              		.loc 1 1245 0
 7554 381c 14301BE5 		ldr	r3, [fp, #-20]
 7555 3820 1520A0E3 		mov	r2, #21
 7556 3824 0020C3E5 		strb	r2, [r3, #0]
 7557 3828 070000EA 		b	.L428
 7558              	.L447:
1246:../proyecto.c **** 		case 'z': *id = z; break;
 7559              		.loc 1 1246 0
 7560 382c 14301BE5 		ldr	r3, [fp, #-20]
 7561 3830 1620A0E3 		mov	r2, #22
 7562 3834 0020C3E5 		strb	r2, [r3, #0]
 7563 3838 030000EA 		b	.L428
 7564              	.L429:
1247:../proyecto.c **** 		case 'H': *id = H; break;
 7565              		.loc 1 1247 0
 7566 383c 14301BE5 		ldr	r3, [fp, #-20]
 7567 3840 1720A0E3 		mov	r2, #23
 7568 3844 0020C3E5 		strb	r2, [r3, #0]
 7569 3848 0000A0E1 		mov	r0, r0	@ nop
 7570              	.L428:
1248:../proyecto.c **** 		}
1249:../proyecto.c **** 		return txt + 1;
 7571              		.loc 1 1249 0
 7572 384c 10301BE5 		ldr	r3, [fp, #-16]
 7573 3850 013083E2 		add	r3, r3, #1
 7574              	.L157:
1250:../proyecto.c **** 	}
1251:../proyecto.c **** }
 7575              		.loc 1 1251 0
 7576 3854 0300A0E1 		mov	r0, r3
 7577 3858 0CD04BE2 		sub	sp, fp, #12
 7578 385c 00689DE8 		ldmfd	sp, {fp, sp, lr}
 7579 3860 1EFF2FE1 		bx	lr
 7580              		.cfi_endproc
 7581              	.LFE18:
 7583              		.section	.rodata
 7584 033e 0000     		.align	2
 7585              	.LC41:
 7586 0340 486F7261 		.ascii	"Hora \000"
 7586      2000
 7587 0346 0000     		.align	2
 7588              	.LC42:
 7589 0348 3A00     		.ascii	":\000"
 7590              		.text
 7591              		.align	2
 7592              		.global	isr_tick
 7594              	isr_tick:
 7595              	.LFB19:
1252:../proyecto.c **** 
1253:../proyecto.c **** 
1254:../proyecto.c **** 
1255:../proyecto.c **** 
1256:../proyecto.c **** void isr_tick( void )
1257:../proyecto.c **** {
 7596              		.loc 1 1257 0
 7597              		.cfi_startproc
 7598              		@ Interrupt Service Routine.
 7599              		@ args = 0, pretend = 0, frame = 8
 7600              		@ frame_needed = 1, uses_anonymous_args = 0
 7601 3864 04C02DE5 		str	ip, [sp, #-4]!
 7602 3868 0DC0A0E1 		mov	ip, sp
 7603              	.LCFI38:
 7604              		.cfi_def_cfa_register 12
 7605 386c 0FD82DE9 		stmfd	sp!, {r0, r1, r2, r3, fp, ip, lr, pc}
 7606 3870 04B04CE2 		sub	fp, ip, #4
 7607              		.cfi_offset 14, -8
 7608              		.cfi_offset 13, -12
 7609              		.cfi_offset 11, -16
 7610              		.cfi_offset 3, -20
 7611              		.cfi_offset 2, -24
 7612              		.cfi_offset 1, -28
 7613              		.cfi_offset 0, -32
 7614              	.LCFI39:
 7615              		.cfi_def_cfa 11, 4
 7616 3874 08D04DE2 		sub	sp, sp, #8
1258:../proyecto.c **** 	rtc_time_t rtc_time;
1259:../proyecto.c **** 	
1260:../proyecto.c **** 	rtc_gettime( &rtc_time );
 7617              		.loc 1 1260 0
 7618 3878 24304BE2 		sub	r3, fp, #36
 7619 387c 0300A0E1 		mov	r0, r3
 7620 3880 FEFFFFEB 		bl	rtc_gettime
1261:../proyecto.c **** 
1262:../proyecto.c **** 	lcd_puts(160, 200, BLACK, "Hora " );
 7621              		.loc 1 1262 0
 7622 3884 A000A0E3 		mov	r0, #160
 7623 3888 C810A0E3 		mov	r1, #200
 7624 388c 0F20A0E3 		mov	r2, #15
 7625 3890 80309FE5 		ldr	r3, .L481
 7626 3894 FEFFFFEB 		bl	lcd_puts
1263:../proyecto.c **** 	lcd_putint(200, 200, BLACK, rtc_time.hour );
 7627              		.loc 1 1263 0
 7628 3898 22305BE5 		ldrb	r3, [fp, #-34]	@ zero_extendqisi2
 7629 389c C800A0E3 		mov	r0, #200
 7630 38a0 C810A0E3 		mov	r1, #200
 7631 38a4 0F20A0E3 		mov	r2, #15
 7632 38a8 FEFFFFEB 		bl	lcd_putint
1264:../proyecto.c **** 	lcd_puts(240, 200, BLACK, ":" );
 7633              		.loc 1 1264 0
 7634 38ac F000A0E3 		mov	r0, #240
 7635 38b0 C810A0E3 		mov	r1, #200
 7636 38b4 0F20A0E3 		mov	r2, #15
 7637 38b8 5C309FE5 		ldr	r3, .L481+4
 7638 38bc FEFFFFEB 		bl	lcd_puts
1265:../proyecto.c **** 	lcd_putint(260, 200, BLACK, rtc_time.min );
 7639              		.loc 1 1265 0
 7640 38c0 23305BE5 		ldrb	r3, [fp, #-35]	@ zero_extendqisi2
 7641 38c4 410FA0E3 		mov	r0, #260
 7642 38c8 C810A0E3 		mov	r1, #200
 7643 38cc 0F20A0E3 		mov	r2, #15
 7644 38d0 FEFFFFEB 		bl	lcd_putint
1266:../proyecto.c **** 	lcd_puts(280, 200, BLACK, ":" );
 7645              		.loc 1 1266 0
 7646 38d4 460FA0E3 		mov	r0, #280
 7647 38d8 C810A0E3 		mov	r1, #200
 7648 38dc 0F20A0E3 		mov	r2, #15
 7649 38e0 34309FE5 		ldr	r3, .L481+4
 7650 38e4 FEFFFFEB 		bl	lcd_puts
1267:../proyecto.c **** 	lcd_putint(x, 200, BLACK, rtc_time.sec );
 7651              		.loc 1 1267 0
 7652 38e8 24305BE5 		ldrb	r3, [fp, #-36]	@ zero_extendqisi2
 7653 38ec 1400A0E3 		mov	r0, #20
 7654 38f0 C810A0E3 		mov	r1, #200
 7655 38f4 0F20A0E3 		mov	r2, #15
 7656 38f8 FEFFFFEB 		bl	lcd_putint
1268:../proyecto.c **** 	
1269:../proyecto.c ****     I_ISPC = BIT_TICK;
 7657              		.loc 1 1269 0
 7658 38fc 1C309FE5 		ldr	r3, .L481+8
 7659 3900 0126A0E3 		mov	r2, #1048576
 7660 3904 002083E5 		str	r2, [r3, #0]
1270:../proyecto.c **** }
 7661              		.loc 1 1270 0
 7662 3908 1CD04BE2 		sub	sp, fp, #28
 7663 390c 0F689DE8 		ldmfd	sp, {r0, r1, r2, r3, fp, sp, lr}
 7664 3910 04C09DE4 		ldmfd	sp!, {ip}
 7665 3914 04F05EE2 		subs	pc, lr, #4
 7666              	.L482:
 7667              		.align	2
 7668              	.L481:
 7669 3918 40030000 		.word	.LC41
 7670 391c 48030000 		.word	.LC42
 7671 3920 2400E001 		.word	31457316
 7672              		.cfi_endproc
 7673              	.LFE19:
 7675              		.section	.rodata
 7676 034a 0000     		.align	2
 7679              	charMap.4573:
 7680 034c 2D       		.byte	45
 7681 034d 2D       		.byte	45
 7682 034e 2D       		.byte	45
 7683 034f 2D       		.byte	45
 7684 0350 2D       		.byte	45
 7685 0351 2D       		.byte	45
 7686 0352 2D       		.byte	45
 7687 0353 2D       		.byte	45
 7688 0354 2D       		.byte	45
 7689 0355 2D       		.byte	45
 7690 0356 2D       		.byte	45
 7691 0357 2D       		.byte	45
 7692 0358 2D       		.byte	45
 7693 0359 2D       		.byte	45
 7694 035a 2D       		.byte	45
 7695 035b 2D       		.byte	45
 7696 035c 2D       		.byte	45
 7697 035d 2D       		.byte	45
 7698 035e 2D       		.byte	45
 7699 035f 2D       		.byte	45
 7700 0360 2D       		.byte	45
 7701 0361 2D       		.byte	45
 7702 0362 2D       		.byte	45
 7703 0363 2D       		.byte	45
 7704 0364 2D       		.byte	45
 7705 0365 2D       		.byte	45
 7706 0366 2D       		.byte	45
 7707 0367 2D       		.byte	45
 7708 0368 2D       		.byte	45
 7709 0369 2D       		.byte	45
 7710 036a 2D       		.byte	45
 7711 036b 2D       		.byte	45
 7712 036c 20       		.byte	32
 7713 036d 2D       		.byte	45
 7714 036e 2D       		.byte	45
 7715 036f 2D       		.byte	45
 7716 0370 2D       		.byte	45
 7717 0371 2D       		.byte	45
 7718 0372 2D       		.byte	45
 7719 0373 2D       		.byte	45
 7720 0374 2D       		.byte	45
 7721 0375 2D       		.byte	45
 7722 0376 2D       		.byte	45
 7723 0377 2D       		.byte	45
 7724 0378 2C       		.byte	44
 7725 0379 2D       		.byte	45
 7726 037a 2E       		.byte	46
 7727 037b 2D       		.byte	45
 7728 037c 30       		.byte	48
 7729 037d 31       		.byte	49
 7730 037e 32       		.byte	50
 7731 037f 33       		.byte	51
 7732 0380 34       		.byte	52
 7733 0381 35       		.byte	53
 7734 0382 36       		.byte	54
 7735 0383 37       		.byte	55
 7736 0384 38       		.byte	56
 7737 0385 39       		.byte	57
 7738 0386 2D       		.byte	45
 7739 0387 2D       		.byte	45
 7740 0388 2D       		.byte	45
 7741 0389 2D       		.byte	45
 7742 038a 2D       		.byte	45
 7743 038b 2D       		.byte	45
 7744 038c 2D       		.byte	45
 7745 038d 61       		.byte	97
 7746 038e 62       		.byte	98
 7747 038f 63       		.byte	99
 7748 0390 64       		.byte	100
 7749 0391 65       		.byte	101
 7750 0392 66       		.byte	102
 7751 0393 67       		.byte	103
 7752 0394 68       		.byte	104
 7753 0395 69       		.byte	105
 7754 0396 6A       		.byte	106
 7755 0397 6B       		.byte	107
 7756 0398 6C       		.byte	108
 7757 0399 6D       		.byte	109
 7758 039a 6E       		.byte	110
 7759 039b 6F       		.byte	111
 7760 039c 70       		.byte	112
 7761 039d 71       		.byte	113
 7762 039e 72       		.byte	114
 7763 039f 73       		.byte	115
 7764 03a0 74       		.byte	116
 7765 03a1 75       		.byte	117
 7766 03a2 62       		.byte	98
 7767 03a3 77       		.byte	119
 7768 03a4 78       		.byte	120
 7769 03a5 79       		.byte	121
 7770 03a6 7A       		.byte	122
 7771 03a7 2D       		.byte	45
 7772 03a8 2D       		.byte	45
 7773 03a9 2D       		.byte	45
 7774 03aa 2D       		.byte	45
 7775 03ab 2D       		.byte	45
 7776 03ac 2D       		.byte	45
 7777 03ad 61       		.byte	97
 7778 03ae 62       		.byte	98
 7779 03af 63       		.byte	99
 7780 03b0 64       		.byte	100
 7781 03b1 65       		.byte	101
 7782 03b2 66       		.byte	102
 7783 03b3 67       		.byte	103
 7784 03b4 68       		.byte	104
 7785 03b5 69       		.byte	105
 7786 03b6 6A       		.byte	106
 7787 03b7 6B       		.byte	107
 7788 03b8 6C       		.byte	108
 7789 03b9 6D       		.byte	109
 7790 03ba 6E       		.byte	110
 7791 03bb 6F       		.byte	111
 7792 03bc 70       		.byte	112
 7793 03bd 71       		.byte	113
 7794 03be 72       		.byte	114
 7795 03bf 73       		.byte	115
 7796 03c0 74       		.byte	116
 7797 03c1 75       		.byte	117
 7798 03c2 62       		.byte	98
 7799 03c3 77       		.byte	119
 7800 03c4 78       		.byte	120
 7801 03c5 79       		.byte	121
 7802 03c6 7A       		.byte	122
 7803 03c7 2D       		.byte	45
 7804 03c8 2D       		.byte	45
 7805 03c9 2D       		.byte	45
 7806 03ca 2D       		.byte	45
 7807 03cb 2D       		.byte	45
 7808 03cc 2D       		.byte	45
 7809 03cd 2D       		.byte	45
 7810 03ce 2D       		.byte	45
 7811 03cf 2D       		.byte	45
 7812 03d0 2D       		.byte	45
 7813 03d1 2D       		.byte	45
 7814 03d2 2D       		.byte	45
 7815 03d3 2D       		.byte	45
 7816 03d4 2D       		.byte	45
 7817 03d5 2D       		.byte	45
 7818 03d6 2D       		.byte	45
 7819 03d7 2D       		.byte	45
 7820 03d8 2D       		.byte	45
 7821 03d9 2D       		.byte	45
 7822 03da 2D       		.byte	45
 7823 03db 2D       		.byte	45
 7824 03dc 2D       		.byte	45
 7825 03dd 2D       		.byte	45
 7826 03de 2D       		.byte	45
 7827 03df 2D       		.byte	45
 7828 03e0 2D       		.byte	45
 7829 03e1 2D       		.byte	45
 7830 03e2 2D       		.byte	45
 7831 03e3 2D       		.byte	45
 7832 03e4 2D       		.byte	45
 7833 03e5 2D       		.byte	45
 7834 03e6 2D       		.byte	45
 7835 03e7 2D       		.byte	45
 7836 03e8 2D       		.byte	45
 7837 03e9 2D       		.byte	45
 7838 03ea 2D       		.byte	45
 7839 03eb 2D       		.byte	45
 7840 03ec 2D       		.byte	45
 7841 03ed 2D       		.byte	45
 7842 03ee 2D       		.byte	45
 7843 03ef 2D       		.byte	45
 7844 03f0 2D       		.byte	45
 7845 03f1 2D       		.byte	45
 7846 03f2 2D       		.byte	45
 7847 03f3 2D       		.byte	45
 7848 03f4 2D       		.byte	45
 7849 03f5 2D       		.byte	45
 7850 03f6 2D       		.byte	45
 7851 03f7 2D       		.byte	45
 7852 03f8 2D       		.byte	45
 7853 03f9 2D       		.byte	45
 7854 03fa 2D       		.byte	45
 7855 03fb 2D       		.byte	45
 7856 03fc 2D       		.byte	45
 7857 03fd 2D       		.byte	45
 7858 03fe 2D       		.byte	45
 7859 03ff 2D       		.byte	45
 7860 0400 2D       		.byte	45
 7861 0401 2D       		.byte	45
 7862 0402 2D       		.byte	45
 7863 0403 2D       		.byte	45
 7864 0404 2D       		.byte	45
 7865 0405 2D       		.byte	45
 7866 0406 2D       		.byte	45
 7867 0407 2D       		.byte	45
 7868 0408 2D       		.byte	45
 7869 0409 2D       		.byte	45
 7870 040a 2D       		.byte	45
 7871 040b 2D       		.byte	45
 7872 040c 61       		.byte	97
 7873 040d 61       		.byte	97
 7874 040e 61       		.byte	97
 7875 040f 61       		.byte	97
 7876 0410 61       		.byte	97
 7877 0411 2D       		.byte	45
 7878 0412 2D       		.byte	45
 7879 0413 2D       		.byte	45
 7880 0414 65       		.byte	101
 7881 0415 65       		.byte	101
 7882 0416 65       		.byte	101
 7883 0417 65       		.byte	101
 7884 0418 69       		.byte	105
 7885 0419 69       		.byte	105
 7886 041a 69       		.byte	105
 7887 041b 69       		.byte	105
 7888 041c 2D       		.byte	45
 7889 041d F1       		.byte	-15
 7890 041e 6F       		.byte	111
 7891 041f 6F       		.byte	111
 7892 0420 6F       		.byte	111
 7893 0421 6F       		.byte	111
 7894 0422 6F       		.byte	111
 7895 0423 78       		.byte	120
 7896 0424 6F       		.byte	111
 7897 0425 75       		.byte	117
 7898 0426 75       		.byte	117
 7899 0427 75       		.byte	117
 7900 0428 FC       		.byte	-4
 7901 0429 2D       		.byte	45
 7902 042a 2D       		.byte	45
 7903 042b 2D       		.byte	45
 7904 042c 61       		.byte	97
 7905 042d 61       		.byte	97
 7906 042e 61       		.byte	97
 7907 042f 61       		.byte	97
 7908 0430 61       		.byte	97
 7909 0431 2D       		.byte	45
 7910 0432 2D       		.byte	45
 7911 0433 2D       		.byte	45
 7912 0434 65       		.byte	101
 7913 0435 65       		.byte	101
 7914 0436 65       		.byte	101
 7915 0437 65       		.byte	101
 7916 0438 69       		.byte	105
 7917 0439 69       		.byte	105
 7918 043a 69       		.byte	105
 7919 043b 69       		.byte	105
 7920 043c 2D       		.byte	45
 7921 043d F1       		.byte	-15
 7922 043e 6F       		.byte	111
 7923 043f 6F       		.byte	111
 7924 0440 6F       		.byte	111
 7925 0441 6F       		.byte	111
 7926 0442 6F       		.byte	111
 7927 0443 78       		.byte	120
 7928 0444 6F       		.byte	111
 7929 0445 75       		.byte	117
 7930 0446 75       		.byte	117
 7931 0447 75       		.byte	117
 7932 0448 FC       		.byte	-4
 7933 0449 2D       		.byte	45
 7934 044a 2D       		.byte	45
 7935 044b 2D       		.byte	45
 7936              		.text
 7937              	.Letext0:
DEFINED SYMBOLS
                            *ABS*:00000000 proyecto.c
C:\Users\USUARI~1\AppData\Local\Temp\cc7D6Dqh.s:2139   .data:00000000 syllablesWavFile
C:\Users\USUARI~1\AppData\Local\Temp\cc7D6Dqh.s:2136   .data:00000000 $d
C:\Users\USUARI~1\AppData\Local\Temp\cc7D6Dqh.s:2326   .bss:00000000 close
C:\Users\USUARI~1\AppData\Local\Temp\cc7D6Dqh.s:2327   .bss:00000000 $d
C:\Users\USUARI~1\AppData\Local\Temp\cc7D6Dqh.s:2331   .bss:00000001 back
                            *COM*:00000001 extraOption
C:\Users\USUARI~1\AppData\Local\Temp\cc7D6Dqh.s:2335   .rodata:00000000 $d
C:\Users\USUARI~1\AppData\Local\Temp\cc7D6Dqh.s:2354   .text:00000000 $a
C:\Users\USUARI~1\AppData\Local\Temp\cc7D6Dqh.s:2357   .text:00000000 main
C:\Users\USUARI~1\AppData\Local\Temp\cc7D6Dqh.s:3488   .text:000008d4 iis_textToSpeech
C:\Users\USUARI~1\AppData\Local\Temp\cc7D6Dqh.s:2520   .text:00000130 showMainMenu
C:\Users\USUARI~1\AppData\Local\Temp\cc7D6Dqh.s:2617   .text:00000228 handleMainOption
C:\Users\USUARI~1\AppData\Local\Temp\cc7D6Dqh.s:2473   .text:0000010c $d
C:\Users\USUARI~1\AppData\Local\Temp\cc7D6Dqh.s:7594   .text:00003864 isr_tick
C:\Users\USUARI~1\AppData\Local\Temp\cc7D6Dqh.s:2517   .text:00000130 $a
C:\Users\USUARI~1\AppData\Local\Temp\cc7D6Dqh.s:2600   .text:000001fc $d
C:\Users\USUARI~1\AppData\Local\Temp\cc7D6Dqh.s:2614   .text:00000228 $a
C:\Users\USUARI~1\AppData\Local\Temp\cc7D6Dqh.s:2643   .text:00000250 $d
C:\Users\USUARI~1\AppData\Local\Temp\cc7D6Dqh.s:2719   .text:000002a4 levelOne
C:\Users\USUARI~1\AppData\Local\Temp\cc7D6Dqh.s:2650   .text:00000264 $a
C:\Users\USUARI~1\AppData\Local\Temp\cc7D6Dqh.s:2894   .text:00000434 levelTwo
C:\Users\USUARI~1\AppData\Local\Temp\cc7D6Dqh.s:3080   .text:000005d0 extrasMenu
C:\Users\USUARI~1\AppData\Local\Temp\cc7D6Dqh.s:3441   .text:0000088c showAbout
C:\Users\USUARI~1\AppData\Local\Temp\cc7D6Dqh.s:2683   .text:000002a0 $d
C:\Users\USUARI~1\AppData\Local\Temp\cc7D6Dqh.s:2716   .text:000002a4 $a
C:\Users\USUARI~1\AppData\Local\Temp\cc7D6Dqh.s:2866   .text:00000408 $d
C:\Users\USUARI~1\AppData\Local\Temp\cc7D6Dqh.s:2891   .text:00000434 $a
C:\Users\USUARI~1\AppData\Local\Temp\cc7D6Dqh.s:3046   .text:000005a4 $d
C:\Users\USUARI~1\AppData\Local\Temp\cc7D6Dqh.s:3077   .text:000005d0 $a
C:\Users\USUARI~1\AppData\Local\Temp\cc7D6Dqh.s:3181   .text:000006c0 handleExtraMenuOption
C:\Users\USUARI~1\AppData\Local\Temp\cc7D6Dqh.s:3161   .text:0000069c $d
C:\Users\USUARI~1\AppData\Local\Temp\cc7D6Dqh.s:3178   .text:000006c0 $a
C:\Users\USUARI~1\AppData\Local\Temp\cc7D6Dqh.s:3366   .text:00000804 requestText
C:\Users\USUARI~1\AppData\Local\Temp\cc7D6Dqh.s:3263   .text:0000074c record
C:\Users\USUARI~1\AppData\Local\Temp\cc7D6Dqh.s:3247   .text:00000744 $d
C:\Users\USUARI~1\AppData\Local\Temp\cc7D6Dqh.s:3260   .text:0000074c $a
C:\Users\USUARI~1\AppData\Local\Temp\cc7D6Dqh.s:3345   .text:000007f4 $d
C:\Users\USUARI~1\AppData\Local\Temp\cc7D6Dqh.s:3363   .text:00000804 $a
C:\Users\USUARI~1\AppData\Local\Temp\cc7D6Dqh.s:3423   .text:00000880 $d
C:\Users\USUARI~1\AppData\Local\Temp\cc7D6Dqh.s:3438   .text:0000088c $a
C:\Users\USUARI~1\AppData\Local\Temp\cc7D6Dqh.s:3479   .text:000008c8 $d
C:\Users\USUARI~1\AppData\Local\Temp\cc7D6Dqh.s:3485   .text:000008d4 $a
C:\Users\USUARI~1\AppData\Local\Temp\cc7D6Dqh.s:4902   .text:000018f0 faseMonolitera
C:\Users\USUARI~1\AppData\Local\Temp\cc7D6Dqh.s:3874   .text:00000c14 faseBilitera
C:\Users\USUARI~1\AppData\Local\Temp\cc7D6Dqh.s:4961   .text:00001968 getSyllableId
C:\Users\USUARI~1\AppData\Local\Temp\cc7D6Dqh.s:3568   .text:0000099c $d
C:\Users\USUARI~1\AppData\Local\Temp\cc7D6Dqh.s:3572   .text:000009a0 $a
C:\Users\USUARI~1\AppData\Local\Temp\cc7D6Dqh.s:3574   .text:000009a0 esPuntuacion
C:\Users\USUARI~1\AppData\Local\Temp\cc7D6Dqh.s:3619   .text:000009f4 $d
C:\Users\USUARI~1\AppData\Local\Temp\cc7D6Dqh.s:3623   .text:000009f8 $a
C:\Users\USUARI~1\AppData\Local\Temp\cc7D6Dqh.s:3625   .text:000009f8 esVocal
C:\Users\USUARI~1\AppData\Local\Temp\cc7D6Dqh.s:3670   .text:00000a4c $d
C:\Users\USUARI~1\AppData\Local\Temp\cc7D6Dqh.s:3674   .text:00000a50 $a
C:\Users\USUARI~1\AppData\Local\Temp\cc7D6Dqh.s:3676   .text:00000a50 esConsonante
C:\Users\USUARI~1\AppData\Local\Temp\cc7D6Dqh.s:3703   .text:00000a7c $d
C:\Users\USUARI~1\AppData\Local\Temp\cc7D6Dqh.s:3756   .text:00000b48 $a
C:\Users\USUARI~1\AppData\Local\Temp\cc7D6Dqh.s:3772   .text:00000b64 esBFGKP
C:\Users\USUARI~1\AppData\Local\Temp\cc7D6Dqh.s:3817   .text:00000bb8 $d
C:\Users\USUARI~1\AppData\Local\Temp\cc7D6Dqh.s:3821   .text:00000bbc $a
C:\Users\USUARI~1\AppData\Local\Temp\cc7D6Dqh.s:3823   .text:00000bbc esBDFGKPT
C:\Users\USUARI~1\AppData\Local\Temp\cc7D6Dqh.s:3868   .text:00000c10 $d
C:\Users\USUARI~1\AppData\Local\Temp\cc7D6Dqh.s:3872   .text:00000c14 $a
C:\Users\USUARI~1\AppData\Local\Temp\cc7D6Dqh.s:3905   .text:00000c48 $d
C:\Users\USUARI~1\AppData\Local\Temp\cc7D6Dqh.s:4117   .text:00000f90 $a
C:\Users\USUARI~1\AppData\Local\Temp\cc7D6Dqh.s:4896   .text:000018ec $d
C:\Users\USUARI~1\AppData\Local\Temp\cc7D6Dqh.s:4900   .text:000018f0 $a
C:\Users\USUARI~1\AppData\Local\Temp\cc7D6Dqh.s:4955   .text:00001964 $d
C:\Users\USUARI~1\AppData\Local\Temp\cc7D6Dqh.s:7679   .rodata:0000034c charMap.4573
C:\Users\USUARI~1\AppData\Local\Temp\cc7D6Dqh.s:4959   .text:00001968 $a
C:\Users\USUARI~1\AppData\Local\Temp\cc7D6Dqh.s:5047   .text:00001a44 $d
C:\Users\USUARI~1\AppData\Local\Temp\cc7D6Dqh.s:5070   .text:00001a98 $a
C:\Users\USUARI~1\AppData\Local\Temp\cc7D6Dqh.s:5129   .text:00001b48 $d
C:\Users\USUARI~1\AppData\Local\Temp\cc7D6Dqh.s:5182   .text:00001c14 $a
C:\Users\USUARI~1\AppData\Local\Temp\cc7D6Dqh.s:5190   .text:00001c30 $d
C:\Users\USUARI~1\AppData\Local\Temp\cc7D6Dqh.s:5213   .text:00001c84 $a
C:\Users\USUARI~1\AppData\Local\Temp\cc7D6Dqh.s:5254   .text:00001cf4 $d
C:\Users\USUARI~1\AppData\Local\Temp\cc7D6Dqh.s:5277   .text:00001d48 $a
C:\Users\USUARI~1\AppData\Local\Temp\cc7D6Dqh.s:5318   .text:00001db8 $d
C:\Users\USUARI~1\AppData\Local\Temp\cc7D6Dqh.s:5341   .text:00001e0c $a
C:\Users\USUARI~1\AppData\Local\Temp\cc7D6Dqh.s:5382   .text:00001e7c $d
C:\Users\USUARI~1\AppData\Local\Temp\cc7D6Dqh.s:5405   .text:00001ed0 $a
C:\Users\USUARI~1\AppData\Local\Temp\cc7D6Dqh.s:5446   .text:00001f40 $d
C:\Users\USUARI~1\AppData\Local\Temp\cc7D6Dqh.s:5469   .text:00001f94 $a
C:\Users\USUARI~1\AppData\Local\Temp\cc7D6Dqh.s:5510   .text:00002004 $d
C:\Users\USUARI~1\AppData\Local\Temp\cc7D6Dqh.s:5533   .text:00002058 $a
C:\Users\USUARI~1\AppData\Local\Temp\cc7D6Dqh.s:5574   .text:000020c8 $d
C:\Users\USUARI~1\AppData\Local\Temp\cc7D6Dqh.s:5597   .text:0000211c $a
C:\Users\USUARI~1\AppData\Local\Temp\cc7D6Dqh.s:5638   .text:0000218c $d
C:\Users\USUARI~1\AppData\Local\Temp\cc7D6Dqh.s:5661   .text:000021e0 $a
C:\Users\USUARI~1\AppData\Local\Temp\cc7D6Dqh.s:5702   .text:00002250 $d
C:\Users\USUARI~1\AppData\Local\Temp\cc7D6Dqh.s:5725   .text:000022a4 $a
C:\Users\USUARI~1\AppData\Local\Temp\cc7D6Dqh.s:5766   .text:00002314 $d
C:\Users\USUARI~1\AppData\Local\Temp\cc7D6Dqh.s:5789   .text:00002368 $a
C:\Users\USUARI~1\AppData\Local\Temp\cc7D6Dqh.s:5830   .text:000023d8 $d
C:\Users\USUARI~1\AppData\Local\Temp\cc7D6Dqh.s:5853   .text:0000242c $a
C:\Users\USUARI~1\AppData\Local\Temp\cc7D6Dqh.s:5894   .text:0000249c $d
C:\Users\USUARI~1\AppData\Local\Temp\cc7D6Dqh.s:5917   .text:000024f0 $a
C:\Users\USUARI~1\AppData\Local\Temp\cc7D6Dqh.s:5958   .text:00002560 $d
C:\Users\USUARI~1\AppData\Local\Temp\cc7D6Dqh.s:5981   .text:000025b4 $a
C:\Users\USUARI~1\AppData\Local\Temp\cc7D6Dqh.s:6022   .text:00002624 $d
C:\Users\USUARI~1\AppData\Local\Temp\cc7D6Dqh.s:6045   .text:00002678 $a
C:\Users\USUARI~1\AppData\Local\Temp\cc7D6Dqh.s:6086   .text:000026e8 $d
C:\Users\USUARI~1\AppData\Local\Temp\cc7D6Dqh.s:6109   .text:0000273c $a
C:\Users\USUARI~1\AppData\Local\Temp\cc7D6Dqh.s:6150   .text:000027ac $d
C:\Users\USUARI~1\AppData\Local\Temp\cc7D6Dqh.s:6173   .text:00002800 $a
C:\Users\USUARI~1\AppData\Local\Temp\cc7D6Dqh.s:6214   .text:00002870 $d
C:\Users\USUARI~1\AppData\Local\Temp\cc7D6Dqh.s:6237   .text:000028c4 $a
C:\Users\USUARI~1\AppData\Local\Temp\cc7D6Dqh.s:6278   .text:00002934 $d
C:\Users\USUARI~1\AppData\Local\Temp\cc7D6Dqh.s:6301   .text:00002988 $a
C:\Users\USUARI~1\AppData\Local\Temp\cc7D6Dqh.s:6342   .text:000029f8 $d
C:\Users\USUARI~1\AppData\Local\Temp\cc7D6Dqh.s:6365   .text:00002a4c $a
C:\Users\USUARI~1\AppData\Local\Temp\cc7D6Dqh.s:6507   .text:00002ba8 $d
C:\Users\USUARI~1\AppData\Local\Temp\cc7D6Dqh.s:6524   .text:00002be4 $a
C:\Users\USUARI~1\AppData\Local\Temp\cc7D6Dqh.s:6532   .text:00002c00 $d
C:\Users\USUARI~1\AppData\Local\Temp\cc7D6Dqh.s:6555   .text:00002c54 $a
C:\Users\USUARI~1\AppData\Local\Temp\cc7D6Dqh.s:6596   .text:00002cc4 $d
C:\Users\USUARI~1\AppData\Local\Temp\cc7D6Dqh.s:6619   .text:00002d18 $a
C:\Users\USUARI~1\AppData\Local\Temp\cc7D6Dqh.s:6660   .text:00002d88 $d
C:\Users\USUARI~1\AppData\Local\Temp\cc7D6Dqh.s:6683   .text:00002ddc $a
C:\Users\USUARI~1\AppData\Local\Temp\cc7D6Dqh.s:6724   .text:00002e4c $d
C:\Users\USUARI~1\AppData\Local\Temp\cc7D6Dqh.s:6747   .text:00002ea0 $a
C:\Users\USUARI~1\AppData\Local\Temp\cc7D6Dqh.s:6788   .text:00002f10 $d
C:\Users\USUARI~1\AppData\Local\Temp\cc7D6Dqh.s:6811   .text:00002f64 $a
C:\Users\USUARI~1\AppData\Local\Temp\cc7D6Dqh.s:6897   .text:00003050 $d
C:\Users\USUARI~1\AppData\Local\Temp\cc7D6Dqh.s:6918   .text:0000309c $a
C:\Users\USUARI~1\AppData\Local\Temp\cc7D6Dqh.s:6926   .text:000030b8 $d
C:\Users\USUARI~1\AppData\Local\Temp\cc7D6Dqh.s:6949   .text:0000310c $a
C:\Users\USUARI~1\AppData\Local\Temp\cc7D6Dqh.s:6990   .text:0000317c $d
C:\Users\USUARI~1\AppData\Local\Temp\cc7D6Dqh.s:7013   .text:000031d0 $a
C:\Users\USUARI~1\AppData\Local\Temp\cc7D6Dqh.s:7054   .text:00003240 $d
C:\Users\USUARI~1\AppData\Local\Temp\cc7D6Dqh.s:7077   .text:00003294 $a
C:\Users\USUARI~1\AppData\Local\Temp\cc7D6Dqh.s:7118   .text:00003304 $d
C:\Users\USUARI~1\AppData\Local\Temp\cc7D6Dqh.s:7141   .text:00003358 $a
C:\Users\USUARI~1\AppData\Local\Temp\cc7D6Dqh.s:7182   .text:000033c8 $d
C:\Users\USUARI~1\AppData\Local\Temp\cc7D6Dqh.s:7205   .text:0000341c $a
C:\Users\USUARI~1\AppData\Local\Temp\cc7D6Dqh.s:7246   .text:0000348c $d
C:\Users\USUARI~1\AppData\Local\Temp\cc7D6Dqh.s:7269   .text:000034e0 $a
C:\Users\USUARI~1\AppData\Local\Temp\cc7D6Dqh.s:7310   .text:00003550 $d
C:\Users\USUARI~1\AppData\Local\Temp\cc7D6Dqh.s:7333   .text:000035a4 $a
C:\Users\USUARI~1\AppData\Local\Temp\cc7D6Dqh.s:7405   .text:00003650 $d
C:\Users\USUARI~1\AppData\Local\Temp\cc7D6Dqh.s:7458   .text:0000371c $a
C:\Users\USUARI~1\AppData\Local\Temp\cc7D6Dqh.s:7669   .text:00003918 $d
                     .debug_frame:00000010 $d

UNDEFINED SYMBOLS
sys_init
leds_init
rtc_init
uart0_init
keypad_init
segs_init
lcd_init
pbs_init
uda1341ts_init
iis_init
uart0_puts
lcd_clear
lcd_on
lcd_puts_x2
uda1341ts_setvol
timer3_delay_s
rtc_open
keypad_getchar
lcd_draw_box
lcd_puts
lcd_putWallpaper
pb_getchar
segs_putchar
iis_rec
sw_delay_ms
uart0_putchar
iis_status
segs_off
iis_play
uart0_gets
iis_playwawFile
led_toggle
led_off
rtc_gettime
lcd_putint
